Hyprland:_IO_stdin_used
Hyprland:_Z10createTreeP11wlr_surfaceP7CWindow
Hyprland:_Z10envEnabledRKNSt7__cxx1112basic_stringIcSt11char_traitsIcESaIcEEE
Hyprland:_Z10execAndGetB5cxx11PKc
Hyprland:_Z10handleNoopP11wl_listenerPv
Hyprland:_Z10pushVert2DffPfRiP4CBox
Hyprland:_Z10ratHandlerPv
Hyprland:_Z10throwErrorRKNSt7__cxx1112basic_stringIcSt11char_traitsIcESaIcEEE
Hyprland:_Z11addWLSignalP9wl_signalP11wl_listenerPvRKNSt7__cxx1112basic_stringIcSt11char_traitsIcESaIcEEE
Hyprland:_Z11handleTimerPv
Hyprland:_Z11isDirectionRKNSt7__cxx1112basic_stringIcSt11char_traitsIcESaIcEEE
Hyprland:_Z11isDirectionRKc
Hyprland:_Z11killRequestB5cxx11v
Hyprland:_Z12absolutePathRKNSt7__cxx1112basic_stringIcSt11char_traitsIcESaIcEEES6_
Hyprland:_Z12bindsRequestB5cxx11N7HyprCtl20eHyprCtlOutputFormatE
Hyprland:_Z12getBacktracev
Hyprland:_Z13addViewCoordsPvPiS0_
Hyprland:_Z13dispatchBatchNSt7__cxx1112basic_stringIcSt11char_traitsIcESaIcEEE
Hyprland:_Z13drmFormatToGLj
Hyprland:_Z13fdHandleWriteijPv
Hyprland:_Z13handleWrappedP11wl_listenerPv
Hyprland:_Z13hyprCtlFDTickijPv
Hyprland:_Z13layersRequestB5cxx11N7HyprCtl20eHyprCtlOutputFormatE
Hyprland:_Z13logSystemInfov
Hyprland:_Z13reloadRequestRKNSt7__cxx1112basic_stringIcSt11char_traitsIcESaIcEEE
Hyprland:_Z13sendEnterIterP11wlr_surfaceiiPv
Hyprland:_Z13sendLeaveIterP11wlr_surfaceiiPv
Hyprland:_Z13setAnimToMovePv
Hyprland:_Z13splashRequestB5cxx11v
Hyprland:_Z13unregisterVarPv
Hyprland:_Z14clientsRequestB5cxx11N7HyprCtl20eHyprCtlOutputFormatE
Hyprland:_Z14createNewPopupP13wlr_xdg_popupP9SXDGPopup
Hyprland:_Z14devicesRequestB5cxx11N7HyprCtl20eHyprCtlOutputFormatE
Hyprland:_Z14dispatchNotifyNSt7__cxx1112basic_stringIcSt11char_traitsIcESaIcEEE
Hyprland:_Z14dispatchOutputNSt7__cxx1112basic_stringIcSt11char_traitsIcESaIcEEE
Hyprland:_Z14dispatchPluginNSt7__cxx1112basic_stringIcSt11char_traitsIcESaIcEEE
Hyprland:_Z14glFormatToTypej
Hyprland:_Z14layerRuleValidRKNSt7__cxx1112basic_stringIcSt11char_traitsIcESaIcEEE
Hyprland:_Z14layoutsRequestB5cxx11N7HyprCtl20eHyprCtlOutputFormatE
Hyprland:_Z14tiFromResourceP11wl_resource
Hyprland:_Z14versionRequestB5cxx11N7HyprCtl20eHyprCtlOutputFormatE
Hyprland:_Z15dispatchKeywordNSt7__cxx1112basic_stringIcSt11char_traitsIcESaIcEEE
Hyprland:_Z15dispatchRequestNSt7__cxx1112basic_stringIcSt11char_traitsIcESaIcEEE
Hyprland:_Z15dispatchSetPropNSt7__cxx1112basic_stringIcSt11char_traitsIcESaIcEEE
Hyprland:_Z15monitorsRequestNSt7__cxx1112basic_stringIcSt11char_traitsIcESaIcEEEN7HyprCtl20eHyprCtlOutputFormatE
Hyprland:_Z15replaceInStringNSt7__cxx1112basic_stringIcSt11char_traitsIcESaIcEEERKS4_S6_
Hyprland:_Z15windowRuleValidRKNSt7__cxx1112basic_stringIcSt11char_traitsIcESaIcEEE
Hyprland:_Z16createOutputIterP11wlr_backendPv
Hyprland:_Z16cursorPosRequestB5cxx11N7HyprCtl20eHyprCtlOutputFormatE
Hyprland:_Z16dispatchSeterrorNSt7__cxx1112basic_stringIcSt11char_traitsIcESaIcEEE
Hyprland:_Z16getRandomMessageB5cxx11v
Hyprland:_Z16handleCritSignaliPv
Hyprland:_Z16handleUserSignali
Hyprland:_Z16matrixProjectionPfii19wl_output_transform
Hyprland:_Z16renderGradientToR8CTextureRK6CColor
Hyprland:_Z16repeatKeyHandlerPv
Hyprland:_Z17addonFromResourceP11wl_resource
Hyprland:_Z17animationsRequestB5cxx11N7HyprCtl20eHyprCtlOutputFormatE
Hyprland:_Z17configStringToIntRKNSt7__cxx1112basic_stringIcSt11char_traitsIcESaIcEEE
Hyprland:_Z17decorationRequestNSt7__cxx1112basic_stringIcSt11char_traitsIcESaIcEEEN7HyprCtl20eHyprCtlOutputFormatE
Hyprland:_Z17destroySubsurfaceP11SSubsurface
Hyprland:_Z17dispatchGetOptionNSt7__cxx1112basic_stringIcSt11char_traitsIcESaIcEEEN7HyprCtl20eHyprCtlOutputFormatE
Hyprland:_Z17dispatchSetCursorNSt7__cxx1112basic_stringIcSt11char_traitsIcESaIcEEE
Hyprland:_Z17escapeJSONStringsRKNSt7__cxx1112basic_stringIcSt11char_traitsIcESaIcEEE
Hyprland:_Z17normalizeAngleRadd
Hyprland:_Z17rollinglogRequestB5cxx11N7HyprCtl20eHyprCtlOutputFormatE
Hyprland:_Z17workspacesRequestB5cxx11N7HyprCtl20eHyprCtlOutputFormatE
Hyprland:_Z19activeWindowRequestB5cxx11N7HyprCtl20eHyprCtlOutputFormatE
Hyprland:_Z19addToDequeRecursivePSt5dequeIP16SDwindleNodeDataSaIS1_EES4_S1_
Hyprland:_Z20addPopupGlobalCoordsPvPiS0_
Hyprland:_Z20cleanCmdForWorkspaceRKNSt7__cxx1112basic_stringIcSt11char_traitsIcESaIcEEES4_
Hyprland:_Z20countSubsurfacesIterP11wlr_surfaceiiPv
Hyprland:_Z20createSubsurfaceNodeP16SSurfaceTreeNodeP11SSubsurfaceP11wlr_surfaceP7CWindow
Hyprland:_Z21checkFocusSurfaceIterP11wlr_surfaceiiPv
Hyprland:_Z21workspaceRulesRequestB5cxx11N7HyprCtl20eHyprCtlOutputFormatE
Hyprland:_Z22activeWorkspaceRequestB5cxx11N7HyprCtl20eHyprCtlOutputFormatE
Hyprland:_Z22addSurfaceGlobalOffsetP16SSurfaceTreeNodePiS1_
Hyprland:_Z22globalShortcutsRequestB5cxx11N7HyprCtl20eHyprCtlOutputFormatE
Hyprland:_Z22switchXKBLayoutRequestRKNSt7__cxx1112basic_stringIcSt11char_traitsIcESaIcEEE
Hyprland:_Z22zwlrHandleFromResourceP11wl_resource
Hyprland:_Z24findExtensionForVector2DP11wlr_surfaceiiPv
Hyprland:_Z24getWorkspaceIDFromStringRKNSt7__cxx1112basic_stringIcSt11char_traitsIcESaIcEEERS4_
Hyprland:_Z24handleGetFractionalScaleP9wl_clientP11wl_resourcejS2_
Hyprland:_Z24refreshGroupBarGradientsv
Hyprland:_Z24removeBeginEndSpacesTabsNSt7__cxx1112basic_stringIcSt11char_traitsIcESaIcEEE
Hyprland:_Z24vecToRectDistanceSquaredRK8Vector2DS1_S1_
Hyprland:_Z25getPlusMinusKeywordResultNSt7__cxx1112basic_stringIcSt11char_traitsIcESaIcEEEf
Hyprland:_Z25handleUnrecoverableSignali
Hyprland:_Z4helpv
Hyprland:_Z6wlTickPv
Hyprland:_Z8getReplyNSt7__cxx1112basic_stringIcSt11char_traitsIcESaIcEEE
Hyprland:_Z8isNumberRKNSt7__cxx1112basic_stringIcSt11char_traitsIcESaIcEEEb
Hyprland:_Z9getPPIDofl
Hyprland:_ZN10CHyprError11queueCreateENSt7__cxx1112basic_stringIcSt11char_traitsIcESaIcEEERK6CColor
Hyprland:_ZN10CHyprError12createQueuedEv
Hyprland:_ZN10CHyprError4drawEv
Hyprland:_ZN10CHyprError7destroyEv
Hyprland:_ZN10CHyprErrorC1Ev
Hyprland:_ZN10CHyprErrorC2Ev
Hyprland:_ZN10CHyprErrorD1Ev
Hyprland:_ZN10CHyprErrorD2Ev
Hyprland:_ZN10CWLSurface4initEv
Hyprland:_ZN10CWLSurface6assignEP11wlr_surface
Hyprland:_ZN10CWLSurface7destroyEv
Hyprland:_ZN10CWLSurface8unassignEv
Hyprland:_ZN10CWLSurfaceC1EP11wlr_surface
Hyprland:_ZN10CWLSurfaceC2EP11wlr_surface
Hyprland:_ZN10CWLSurfaceD1Ev
Hyprland:_ZN10CWLSurfaceD2Ev
Hyprland:_ZN10CWorkspace13getConfigNameB5cxx11Ev
Hyprland:_ZN10CWorkspace13moveToMonitorERKi
Hyprland:_ZN10CWorkspace20getLastFocusedWindowEv
Hyprland:_ZN10CWorkspace21rememberPrevWorkspaceEPKS_
Hyprland:_ZN10CWorkspace9setActiveEb
Hyprland:_ZN10CWorkspace9startAnimEbbb
Hyprland:_ZN10CWorkspaceC1EiNSt7__cxx1112basic_stringIcSt11char_traitsIcESaIcEEEb
Hyprland:_ZN10CWorkspaceC2EiNSt7__cxx1112basic_stringIcSt11char_traitsIcESaIcEEEb
Hyprland:_ZN10CWorkspaceD1Ev
Hyprland:_ZN10CWorkspaceD2Ev
Hyprland:_ZN11CCompositor10initServerEv
Hyprland:_ZN11CCompositor11closeWindowEP7CWindow
Hyprland:_ZN11CCompositor11focusWindowEP7CWindowP11wlr_surface
Hyprland:_ZN11CCompositor12focusSurfaceEP11wlr_surfaceP7CWindow
Hyprland:_ZN11CCompositor12getX11ParentEP7CWindow
Hyprland:_ZN11CCompositor12initManagersE18eManagersInitStage
Hyprland:_ZN11CCompositor12warpCursorToERK8Vector2Db
Hyprland:_ZN11CCompositor12windowExistsEP7CWindow
Hyprland:_ZN11CCompositor13getForceFocusEv
Hyprland:_ZN11CCompositor14createLockFileEv
Hyprland:_ZN11CCompositor14initAllSignalsEv
Hyprland:_ZN11CCompositor14isWindowActiveEP7CWindow
Hyprland:_ZN11CCompositor14removeLockFileEv
Hyprland:_ZN11CCompositor15arrangeMonitorsEv
Hyprland:_ZN11CCompositor15getNewSpecialIDEv
Hyprland:_ZN11CCompositor15getUrgentWindowEv
Hyprland:_ZN11CCompositor15renameWorkspaceERKiRKNSt7__cxx1112basic_stringIcSt11char_traitsIcESaIcEEE
Hyprland:_ZN11CCompositor15setRandomSplashEv
Hyprland:_ZN11CCompositor15startCompositorEv
Hyprland:_ZN11CCompositor16cleanupFadingOutERKi
Hyprland:_ZN11CCompositor16enterUnsafeStateEv
Hyprland:_ZN11CCompositor16getMonitorFromIDERKi
Hyprland:_ZN11CCompositor16getWindowByRegexERKNSt7__cxx1112basic_stringIcSt11char_traitsIcESaIcEEE
Hyprland:_ZN11CCompositor16getWorkspaceByIDERKi
Hyprland:_ZN11CCompositor16leaveUnsafeStateEv
Hyprland:_ZN11CCompositor16setActiveMonitorEP8CMonitor
Hyprland:_ZN11CCompositor16vectorToIMEPopupERK8Vector2DRNSt7__cxx114listI9SIMEPopupSaIS5_EEE
Hyprland:_ZN11CCompositor16windowFromCursorEv
Hyprland:_ZN11CCompositor17getWindowForPopupEP13wlr_xdg_popup
Hyprland:_ZN11CCompositor17performUserChecksEv
Hyprland:_ZN11CCompositor17windowValidMappedEP7CWindow
Hyprland:_ZN11CCompositor18addToFadingOutSafeEP13SLayerSurface
Hyprland:_ZN11CCompositor18addToFadingOutSafeEP7CWindow
Hyprland:_ZN11CCompositor18changeWindowZOrderEP7CWindowb
Hyprland:_ZN11CCompositor18createNewWorkspaceERKiS1_RKNSt7__cxx1112basic_stringIcSt11char_traitsIcESaIcEEE
Hyprland:_ZN11CCompositor18getMonitorFromDescERKNSt7__cxx1112basic_stringIcSt11char_traitsIcESaIcEEE
Hyprland:_ZN11CCompositor18getMonitorFromNameERKNSt7__cxx1112basic_stringIcSt11char_traitsIcESaIcEEE
Hyprland:_ZN11CCompositor18getWorkspaceByNameERKNSt7__cxx1112basic_stringIcSt11char_traitsIcESaIcEEE
Hyprland:_ZN11CCompositor18isWorkspaceSpecialERKi
Hyprland:_ZN11CCompositor18isWorkspaceVisibleERKi
Hyprland:_ZN11CCompositor18notifyIdleActivityEv
Hyprland:_ZN11CCompositor19doesSeatAcceptInputEP11wlr_surface
Hyprland:_ZN11CCompositor19getConstraintWindowEP6SMouse
Hyprland:_ZN11CCompositor19getWindowFromHandleEj
Hyprland:_ZN11CCompositor19isPointOnAnyMonitorERK8Vector2D
Hyprland:_ZN11CCompositor19setWindowFullscreenEP7CWindowb15eFullscreenMode
Hyprland:_ZN11CCompositor19vectorToWindowIdealERK8Vector2DP7CWindow
Hyprland:_ZN11CCompositor19vectorToWindowTiledERK8Vector2D
Hyprland:_ZN11CCompositor20getMonitorFromCursorEv
Hyprland:_ZN11CCompositor20getMonitorFromOutputEP10wlr_output
Hyprland:_ZN11CCompositor20getMonitorFromStringERKNSt7__cxx1112basic_stringIcSt11char_traitsIcESaIcEEE
Hyprland:_ZN11CCompositor20getMonitorFromVectorERK8Vector2D
Hyprland:_ZN11CCompositor20getWindowFromSurfaceEP11wlr_surface
Hyprland:_ZN11CCompositor20getWindowInDirectionEP7CWindowc
Hyprland:_ZN11CCompositor20getWorkspaceByStringERKNSt7__cxx1112basic_stringIcSt11char_traitsIcESaIcEEE
Hyprland:_ZN11CCompositor20swapActiveWorkspacesEP8CMonitorS1_
Hyprland:_ZN11CCompositor20vectorToLayerSurfaceERK8Vector2DPSt6vectorISt10unique_ptrI13SLayerSurfaceSt14default_deleteIS5_EESaIS8_EEPS0_PPS5_
Hyprland:_ZN11CCompositor20vectorToSurfaceLocalERK8Vector2DP7CWindowP11wlr_surface
Hyprland:_ZN11CCompositor21getMonitorInDirectionERKc
Hyprland:_ZN11CCompositor21getWindowsOnWorkspaceERKi
Hyprland:_ZN11CCompositor21isPointOnReservedAreaERK8Vector2DPK8CMonitor
Hyprland:_ZN11CCompositor21prepareFallbackOutputEv
Hyprland:_ZN11CCompositor21sanityCheckWorkspacesEv
Hyprland:_ZN11CCompositor21updateSuspendedStatesEv
Hyprland:_ZN11CCompositor21vectorWindowToSurfaceERK8Vector2DP7CWindowRS0_
Hyprland:_ZN11CCompositor22getLayerSurfaceFromWlrEP20wlr_layer_surface_v1
Hyprland:_ZN11CCompositor22moveWorkspaceToMonitorEP10CWorkspaceP8CMonitor
Hyprland:_ZN11CCompositor22setIdleActivityInhibitEb
Hyprland:_ZN11CCompositor22updateWorkspaceWindowsERKl
Hyprland:_ZN11CCompositor22workspaceIDOutOfBoundsERKl
Hyprland:_ZN11CCompositor23getWindowFromZWLRHandleEP11wl_resource
Hyprland:_ZN11CCompositor23scheduleFrameForMonitorEP8CMonitor
Hyprland:_ZN11CCompositor24getNextWindowOnWorkspaceEP7CWindowbSt8optionalIbE
Hyprland:_ZN11CCompositor24getPrevWindowOnWorkspaceEP7CWindowbSt8optionalIbE
Hyprland:_ZN11CCompositor24windowFloatingFromCursorEv
Hyprland:_ZN11CCompositor25getFirstWindowOnWorkspaceERKi
Hyprland:_ZN11CCompositor25getNextAvailableMonitorIDERKNSt7__cxx1112basic_stringIcSt11char_traitsIcESaIcEEE
Hyprland:_ZN11CCompositor25moveWindowToWorkspaceSafeEP7CWindowP10CWorkspace
Hyprland:_ZN11CCompositor26getLayerSurfaceFromSurfaceEP11wlr_surface
Hyprland:_ZN11CCompositor26hasUrgentWindowOnWorkspaceERKi
Hyprland:_ZN11CCompositor26removeWindowFromVectorSafeEP7CWindow
Hyprland:_ZN11CCompositor26updateWorkspaceWindowDecosERKi
Hyprland:_ZN11CCompositor27getTopLeftWindowOnWorkspaceERKi
Hyprland:_ZN11CCompositor27setPreferredScaleForSurfaceEP11wlr_surfaced
Hyprland:_ZN11CCompositor29parseWindowVectorArgsRelativeERKNSt7__cxx1112basic_stringIcSt11char_traitsIcESaIcEEERK8Vector2D
Hyprland:_ZN11CCompositor30getFullscreenWindowOnWorkspaceERKi
Hyprland:_ZN11CCompositor30getNextAvailableNamedWorkspaceEv
Hyprland:_ZN11CCompositor31setPreferredTransformForSurfaceEP11wlr_surface19wl_output_transform
Hyprland:_ZN11CCompositor31updateFullscreenFadeOnWorkspaceEP10CWorkspace
Hyprland:_ZN11CCompositor36forceReportSizesToWindowsOnWorkspaceERKi
Hyprland:_ZN11CCompositor36updateWindowAnimatedDecorationValuesEP7CWindow
Hyprland:_ZN11CCompositor40updateAllWindowsAnimatedDecorationValuesEv
Hyprland:_ZN11CCompositor7cleanupEv
Hyprland:_ZN11CCompositorC1Ev
Hyprland:_ZN11CCompositorC2Ev
Hyprland:_ZN11CCompositorD1Ev
Hyprland:_ZN11CCompositorD2Ev
Hyprland:_ZN11CHookSystem10removeHookEP13CFunctionHook
Hyprland:_ZN11CHookSystem18removeAllHooksFromEPv
Hyprland:_ZN11CHookSystem8initHookEPvS0_S0_
Hyprland:_ZN11IHyprLayout11onMouseMoveERK8Vector2D
Hyprland:_ZN11IHyprLayout15onEndDragWindowEv
Hyprland:_ZN11IHyprLayout15onWindowCreatedEP7CWindow10eDirection
Hyprland:_ZN11IHyprLayout15onWindowRemovedEP7CWindow
Hyprland:_ZN11IHyprLayout16bringWindowToTopEP7CWindow
Hyprland:_ZN11IHyprLayout16moveActiveWindowERK8Vector2DP7CWindow
Hyprland:_ZN11IHyprLayout17isWindowReachableEP7CWindow
Hyprland:_ZN11IHyprLayout17onBeginDragWindowEv
Hyprland:_ZN11IHyprLayout19onWindowFocusChangeEP7CWindow
Hyprland:_ZN11IHyprLayout21requestFocusForWindowEP7CWindow
Hyprland:_ZN11IHyprLayout22getNextWindowCandidateEP7CWindow
Hyprland:_ZN11IHyprLayout23onWindowCreatedFloatingEP7CWindow
Hyprland:_ZN11IHyprLayout23onWindowRemovedFloatingEP7CWindow
Hyprland:_ZN11IHyprLayout24changeWindowFloatingModeEP7CWindow
Hyprland:_ZN11IHyprLayoutD0Ev
Hyprland:_ZN11IHyprLayoutD1Ev
Hyprland:_ZN11IHyprLayoutD2Ev
Hyprland:_ZN11SConstraint20getLogicCoordsRegionEv
Hyprland:_ZN11SConstraint21getLogicConstraintPosEv
Hyprland:_ZN11SConstraint22getLogicConstraintSizeEv
Hyprland:_ZN12CBezierCurve12getYForPointEf
Hyprland:_ZN12CBezierCurve5setupEPSt6vectorI8Vector2DSaIS1_EE
Hyprland:_ZN12CBezierCurve8getXForTEf
Hyprland:_ZN12CBezierCurve8getYForTEf
Hyprland:_ZN12CFramebuffer10addStencilEv
Hyprland:_ZN12CFramebuffer11isAllocatedEv
Hyprland:_ZN12CFramebuffer4bindEv
Hyprland:_ZN12CFramebuffer5allocEiij
Hyprland:_ZN12CFramebuffer7releaseEv
Hyprland:_ZN12CFramebufferD1Ev
Hyprland:_ZN12CFramebufferD2Ev
Hyprland:_ZN13CEventManager11flushEventsEv
Hyprland:_ZN13CEventManager11startThreadEv
Hyprland:_ZN13CEventManager9postEventE13SHyprIPCEvent
Hyprland:_ZN13CEventManagerC1Ev
Hyprland:_ZN13CEventManagerC2Ev
Hyprland:_ZN13CFunctionHook19getInstructionLenAtEPv
Hyprland:_ZN13CFunctionHook20probeMinimumJumpSizeEPvm
Hyprland:_ZN13CFunctionHook27fixInstructionProbeRIPCallsERKNS_17SInstructionProbeE
Hyprland:_ZN13CFunctionHook4hookEv
Hyprland:_ZN13CFunctionHook6unhookEv
Hyprland:_ZN13CFunctionHookC1EPvS0_S0_
Hyprland:_ZN13CFunctionHookC2EPvS0_S0_
Hyprland:_ZN13CFunctionHookD1Ev
Hyprland:_ZN13CFunctionHookD2Ev
Hyprland:_ZN13CHyprRenderer11beginRenderEP8CMonitorR7CRegion11eRenderModeP10wlr_bufferP12CFramebuffer
Hyprland:_ZN13CHyprRenderer11renderLayerEP13SLayerSurfaceP8CMonitorP8timespec
Hyprland:_ZN13CHyprRenderer12damageRegionERK7CRegion
Hyprland:_ZN13CHyprRenderer12damageWindowEP7CWindow
Hyprland:_ZN13CHyprRenderer12renderWindowEP7CWindowP8CMonitorP8timespecb15eRenderPassModebb
Hyprland:_ZN13CHyprRenderer13damageMonitorEP8CMonitor
Hyprland:_ZN13CHyprRenderer13damageSurfaceEP11wlr_surfaceddd
Hyprland:_ZN13CHyprRenderer13getCurrentRBOEv
Hyprland:_ZN13CHyprRenderer13renderMonitorEP8CMonitor
Hyprland:_ZN13CHyprRenderer14getRenderTimesEP8CMonitor
Hyprland:_ZN13CHyprRenderer14makeEGLCurrentEv
Hyprland:_ZN13CHyprRenderer14renderDragIconEP8CMonitorP8timespec
Hyprland:_ZN13CHyprRenderer14renderIMEPopupEP9SIMEPopupP8CMonitorP8timespec
Hyprland:_ZN13CHyprRenderer15renderWorkspaceEP8CMonitorP10CWorkspaceP8timespecRK4CBox
Hyprland:_ZN13CHyprRenderer15setCursorHiddenEb
Hyprland:_ZN13CHyprRenderer16applyMonitorRuleEP8CMonitorP12SMonitorRuleb
Hyprland:_ZN13CHyprRenderer16renderLockscreenEP8CMonitorP8timespec
Hyprland:_ZN13CHyprRenderer16setCursorSurfaceEP11wlr_surfaceiib
Hyprland:_ZN13CHyprRenderer17arrangeLayerArrayEP8CMonitorRKSt6vectorISt10unique_ptrI13SLayerSurfaceSt14default_deleteIS4_EESaIS7_EEbP4CBox
Hyprland:_ZN13CHyprRenderer17damageMirrorsWithEP8CMonitorRK7CRegion
Hyprland:_ZN13CHyprRenderer17setCursorFromNameERKNSt7__cxx1112basic_stringIcSt11char_traitsIcESaIcEEEb
Hyprland:_ZN13CHyprRenderer18outputMgrApplyTestEP27wlr_output_configuration_v1b
Hyprland:_ZN13CHyprRenderer18shouldRenderCursorEv
Hyprland:_ZN13CHyprRenderer18shouldRenderWindowEP7CWindow
Hyprland:_ZN13CHyprRenderer18shouldRenderWindowEP7CWindowP8CMonitorP10CWorkspace
Hyprland:_ZN13CHyprRenderer19initiateManualCrashEv
Hyprland:_ZN13CHyprRenderer20attemptDirectScanoutEP8CMonitor
Hyprland:_ZN13CHyprRenderer20setWindowScanoutModeEP7CWindow
Hyprland:_ZN13CHyprRenderer21calculateUVForSurfaceEP7CWindowP11wlr_surfaceb
Hyprland:_ZN13CHyprRenderer21onRenderbufferDestroyEP13CRenderbuffer
Hyprland:_ZN13CHyprRenderer21renderSoftwareCursorsEP8CMonitorRK7CRegionSt8optionalI8Vector2DE
Hyprland:_ZN13CHyprRenderer22canSkipBackBufferClearEP8CMonitor
Hyprland:_ZN13CHyprRenderer22renderWorkspaceWindowsEP8CMonitorP10CWorkspaceP8timespec
Hyprland:_ZN13CHyprRenderer23arrangeLayersForMonitorERKi
Hyprland:_ZN13CHyprRenderer23getOrCreateRenderbufferEP10wlr_bufferj
Hyprland:_ZN13CHyprRenderer24renderSessionLockSurfaceEP19SSessionLockSurfaceP8CMonitorP8timespec
Hyprland:_ZN13CHyprRenderer24setOccludedForBackLayersER7CRegionP10CWorkspace
Hyprland:_ZN13CHyprRenderer25damageTrackingModeFromStrERKNSt7__cxx1112basic_stringIcSt11char_traitsIcESaIcEEE
Hyprland:_ZN13CHyprRenderer25ensureCursorRenderingModeEv
Hyprland:_ZN13CHyprRenderer25recheckSolitaryForMonitorEP8CMonitor
Hyprland:_ZN13CHyprRenderer27setOccludedForMainWorkspaceER7CRegionP10CWorkspace
Hyprland:_ZN13CHyprRenderer28renderAllClientsForWorkspaceEP8CMonitorP10CWorkspaceP8timespecRK8Vector2DRKf
Hyprland:_ZN13CHyprRenderer32renderWorkspaceWindowsFullscreenEP8CMonitorP10CWorkspaceP8timespec
Hyprland:_ZN13CHyprRenderer8isNvidiaEv
Hyprland:_ZN13CHyprRenderer8unsetEGLEv
Hyprland:_ZN13CHyprRenderer9damageBoxEP4CBox
Hyprland:_ZN13CHyprRenderer9damageBoxERKiS1_S1_S1_
Hyprland:_ZN13CHyprRenderer9endRenderEv
Hyprland:_ZN13CHyprRendererC1Ev
Hyprland:_ZN13CHyprRendererC2Ev
Hyprland:_ZN13CInputManager10onSwipeEndEP27wlr_pointer_swipe_end_event
Hyprland:_ZN13CInputManager11focusTabletEP7STabletP15wlr_tablet_toolb
Hyprland:_ZN13CInputManager11newKeyboardEP16wlr_input_device
Hyprland:_ZN13CInputManager11onMouseWarpEP33wlr_pointer_motion_absolute_event
Hyprland:_ZN13CInputManager11onTouchDownEP20wlr_touch_down_event
Hyprland:_ZN13CInputManager11onTouchMoveEP22wlr_touch_motion_event
Hyprland:_ZN13CInputManager12destroyMouseEP16wlr_input_device
Hyprland:_ZN13CInputManager12getClickModeEv
Hyprland:_ZN13CInputManager12newTabletPadEP16wlr_input_device
Hyprland:_ZN13CInputManager12onMouseMovedEP24wlr_pointer_motion_event
Hyprland:_ZN13CInputManager12onMouseWheelEP22wlr_pointer_axis_event
Hyprland:_ZN13CInputManager12onSwipeBeginEP29wlr_pointer_swipe_begin_event
Hyprland:_ZN13CInputManager12setClickModeE18eClickBehaviorMode
Hyprland:_ZN13CInputManager13destroySwitchEP13SSwitchDevice
Hyprland:_ZN13CInputManager13newTabletToolEP16wlr_input_device
Hyprland:_ZN13CInputManager13onKeyboardKeyEP22wlr_keyboard_key_eventP9SKeyboard
Hyprland:_ZN13CInputManager13onKeyboardModEPvP9SKeyboard
Hyprland:_ZN13CInputManager13onMouseButtonEP24wlr_pointer_button_event
Hyprland:_ZN13CInputManager13onSwipeUpdateEP30wlr_pointer_swipe_update_event
Hyprland:_ZN13CInputManager14constrainMouseEP6SMouseP25wlr_pointer_constraint_v1
Hyprland:_ZN13CInputManager14newTouchDeviceEP16wlr_input_device
Hyprland:_ZN13CInputManager14updateDragIconEv
Hyprland:_ZN13CInputManager15destroyKeyboardEP9SKeyboard
Hyprland:_ZN13CInputManager16mouseMoveUnifiedEjb
Hyprland:_ZN13CInputManager16newIdleInhibitorEP21wlr_idle_inhibitor_v1
Hyprland:_ZN13CInputManager16onPointerHoldEndEP26wlr_pointer_hold_end_event
Hyprland:_ZN13CInputManager16setTabletConfigsEv
Hyprland:_ZN13CInputManager16unconstrainMouseEv
Hyprland:_ZN13CInputManager16unsetCursorImageEv
Hyprland:_ZN13CInputManager17constraintFromWlrEP25wlr_pointer_constraint_v1
Hyprland:_ZN13CInputManager17recheckConstraintEP6SMouse
Hyprland:_ZN13CInputManager17setKeyboardLayoutEv
Hyprland:_ZN13CInputManager17setPointerConfigsEv
Hyprland:_ZN13CInputManager18destroyTouchDeviceEP12STouchDevice
Hyprland:_ZN13CInputManager18newVirtualKeyboardEP16wlr_input_device
Hyprland:_ZN13CInputManager18onPointerHoldBeginEP28wlr_pointer_hold_begin_event
Hyprland:_ZN13CInputManager18updateCapabilitiesEv
Hyprland:_ZN13CInputManager19beginWorkspaceSwipeEv
Hyprland:_ZN13CInputManager19cursorImageUnlockedEv
Hyprland:_ZN13CInputManager19disableAllKeyboardsEb
Hyprland:_ZN13CInputManager19getNameForNewDeviceENSt7__cxx1112basic_stringIcSt11char_traitsIcESaIcEEE
Hyprland:_ZN13CInputManager19processMouseRequestEP41wlr_seat_pointer_request_set_cursor_event
Hyprland:_ZN13CInputManager19processMouseRequestEP51wlr_cursor_shape_manager_v1_request_set_shape_event
Hyprland:_ZN13CInputManager19updateKeyboardsLedsEP16wlr_input_device
Hyprland:_ZN13CInputManager20processMouseDownKillEP24wlr_pointer_button_event
Hyprland:_ZN13CInputManager21applyConfigToKeyboardEP9SKeyboard
Hyprland:_ZN13CInputManager21setCursorIconOnBorderEP7CWindow
Hyprland:_ZN13CInputManager21setTouchDeviceConfigsEP12STouchDevice
Hyprland:_ZN13CInputManager21simulateMouseMovementEv
Hyprland:_ZN13CInputManager22getMouseCoordsInternalEv
Hyprland:_ZN13CInputManager22processMouseDownNormalEP24wlr_pointer_button_event
Hyprland:_ZN13CInputManager22releaseAllMouseButtonsEv
Hyprland:_ZN13CInputManager22restoreCursorIconToAppEv
Hyprland:_ZN13CInputManager22setCursorImageOverrideERKNSt7__cxx1112basic_stringIcSt11char_traitsIcESaIcEEE
Hyprland:_ZN13CInputManager23ensureTabletToolPresentEP15wlr_tablet_tool
Hyprland:_ZN13CInputManager24accumulateModsFromAllKBsEv
Hyprland:_ZN13CInputManager24setCursorImageUntilUnsetENSt7__cxx1112basic_stringIcSt11char_traitsIcESaIcEEE
Hyprland:_ZN13CInputManager25sendMotionEventsToFocusedEv
Hyprland:_ZN13CInputManager26deviceNameToInternalStringENSt7__cxx1112basic_stringIcSt11char_traitsIcESaIcEEE
Hyprland:_ZN13CInputManager26getActiveLayoutForKeyboardB5cxx11EP9SKeyboard
Hyprland:_ZN13CInputManager26recheckIdleInhibitorStatusEv
Hyprland:_ZN13CInputManager27shouldIgnoreVirtualKeyboardEP9SKeyboard
Hyprland:_ZN13CInputManager27warpMouseToConstraintMiddleEP11SConstraint
Hyprland:_ZN13CInputManager7refocusEv
Hyprland:_ZN13CInputManager8newMouseEP16wlr_input_deviceb
Hyprland:_ZN13CInputManager9newSwitchEP16wlr_input_device
Hyprland:_ZN13CInputManager9onTouchUpEP18wlr_touch_up_event
Hyprland:_ZN13CInputManagerD1Ev
Hyprland:_ZN13CInputManagerD2Ev
Hyprland:_ZN13CPluginSystem10loadPluginERKNSt7__cxx1112basic_stringIcSt11char_traitsIcESaIcEEE
Hyprland:_ZN13CPluginSystem12unloadPluginEPK7CPluginb
Hyprland:_ZN13CPluginSystem13getAllPluginsEv
Hyprland:_ZN13CPluginSystem15getPluginByPathERKNSt7__cxx1112basic_stringIcSt11char_traitsIcESaIcEEE
Hyprland:_ZN13CPluginSystem16unloadAllPluginsEv
Hyprland:_ZN13CPluginSystem17getPluginByHandleEPv
Hyprland:_ZN13CPluginSystem19updateConfigPluginsERKSt6vectorINSt7__cxx1112basic_stringIcSt11char_traitsIcESaIcEEESaIS6_EERb
Hyprland:_ZN13CPluginSystemC1Ev
Hyprland:_ZN13CPluginSystemC2Ev
Hyprland:_ZN13CRenderbuffer4bindEv
Hyprland:_ZN13CRenderbuffer5getFBEv
Hyprland:_ZN13CRenderbuffer6bindFBEv
Hyprland:_ZN13CRenderbuffer6unbindEv
Hyprland:_ZN13CRenderbufferC1EP10wlr_bufferj
Hyprland:_ZN13CRenderbufferC2EP10wlr_bufferj
Hyprland:_ZN13CRenderbufferD1Ev
Hyprland:_ZN13CRenderbufferD2Ev
Hyprland:_ZN13CrashReporter18createAndSaveCrashEi
Hyprland:_ZN13SLayerSurface10applyRulesEv
Hyprland:_ZN13SLayerSurfaceC1Ev
Hyprland:_ZN13SLayerSurfaceC2Ev
Hyprland:_ZN13SLayerSurfaceD1Ev
Hyprland:_ZN13SLayerSurfaceD2Ev
Hyprland:_ZN14CConfigManager10handleBindERKNSt7__cxx1112basic_stringIcSt11char_traitsIcESaIcEEES7_
Hyprland:_ZN14CConfigManager11addExecRuleERK18SExecRequestedRule
Hyprland:_ZN14CConfigManager12getConfigDirB5cxx11Ev
Hyprland:_ZN14CConfigManager12getDeviceIntERKNSt7__cxx1112basic_stringIcSt11char_traitsIcESaIcEEES7_S7_
Hyprland:_ZN14CConfigManager12getDeviceVecERKNSt7__cxx1112basic_stringIcSt11char_traitsIcESaIcEEES7_S7_
Hyprland:_ZN14CConfigManager12handleBezierERKNSt7__cxx1112basic_stringIcSt11char_traitsIcESaIcEEES7_
Hyprland:_ZN14CConfigManager12handleBindWSERKNSt7__cxx1112basic_stringIcSt11char_traitsIcESaIcEEES7_
Hyprland:_ZN14CConfigManager12handleBlurLSERKNSt7__cxx1112basic_stringIcSt11char_traitsIcESaIcEEES7_
Hyprland:_ZN14CConfigManager12handlePluginERKNSt7__cxx1112basic_stringIcSt11char_traitsIcESaIcEEES7_
Hyprland:_ZN14CConfigManager12handleSourceERKNSt7__cxx1112basic_stringIcSt11char_traitsIcESaIcEEES7_
Hyprland:_ZN14CConfigManager12handleSubmapERKNSt7__cxx1112basic_stringIcSt11char_traitsIcESaIcEEES7_
Hyprland:_ZN14CConfigManager12handleUnbindERKNSt7__cxx1112basic_stringIcSt11char_traitsIcESaIcEEES7_
Hyprland:_ZN14CConfigManager12parseKeywordERKNSt7__cxx1112basic_stringIcSt11char_traitsIcESaIcEEES7_b
Hyprland:_ZN14CConfigManager12shouldBlurLSERKNSt7__cxx1112basic_stringIcSt11char_traitsIcESaIcEEE
Hyprland:_ZN14CConfigManager13addParseErrorERKNSt7__cxx1112basic_stringIcSt11char_traitsIcESaIcEEE
Hyprland:_ZN14CConfigManager13handleMonitorERKNSt7__cxx1112basic_stringIcSt11char_traitsIcESaIcEEES7_
Hyprland:_ZN14CConfigManager13handleRawExecERKNSt7__cxx1112basic_stringIcSt11char_traitsIcESaIcEEES7_
Hyprland:_ZN14CConfigManager14getDeviceFloatERKNSt7__cxx1112basic_stringIcSt11char_traitsIcESaIcEEES7_S7_
Hyprland:_ZN14CConfigManager14setDefaultVarsEv
Hyprland:_ZN14CConfigManager15getDeviceStringERKNSt7__cxx1112basic_stringIcSt11char_traitsIcESaIcEEES7_S7_
Hyprland:_ZN14CConfigManager15handleAnimationERKNSt7__cxx1112basic_stringIcSt11char_traitsIcESaIcEEES7_
Hyprland:_ZN14CConfigManager15handleLayerRuleERKNSt7__cxx1112basic_stringIcSt11char_traitsIcESaIcEEES7_
Hyprland:_ZN14CConfigManager15updateBlurredLSERKNSt7__cxx1112basic_stringIcSt11char_traitsIcESaIcEEEb
Hyprland:_ZN14CConfigManager16addPluginKeywordEPvRKNSt7__cxx1112basic_stringIcSt11char_traitsIcESaIcEEESt8functionIFvS8_S8_EE
Hyprland:_ZN14CConfigManager16dispatchExecOnceEv
Hyprland:_ZN14CConfigManager16getMatchingRulesEP13SLayerSurface
Hyprland:_ZN14CConfigManager16getMatchingRulesEP7CWindow
Hyprland:_ZN14CConfigManager16handleWindowRuleERKNSt7__cxx1112basic_stringIcSt11char_traitsIcESaIcEEES7_
Hyprland:_ZN14CConfigManager17getConfigValuePtrERKNSt7__cxx1112basic_stringIcSt11char_traitsIcESaIcEEE
Hyprland:_ZN14CConfigManager17getMainConfigPathB5cxx11Ev
Hyprland:_ZN14CConfigManager17getMonitorRuleForERKNSt7__cxx1112basic_stringIcSt11char_traitsIcESaIcEEES7_
Hyprland:_ZN14CConfigManager17handlePluginLoadsEv
Hyprland:_ZN14CConfigManager18addPluginConfigVarEPvRKNSt7__cxx1112basic_stringIcSt11char_traitsIcESaIcEEERK12SConfigValue
Hyprland:_ZN14CConfigManager18configSetValueSafeERKNSt7__cxx1112basic_stringIcSt11char_traitsIcESaIcEEES7_
Hyprland:_ZN14CConfigManager18deviceConfigExistsERKNSt7__cxx1112basic_stringIcSt11char_traitsIcESaIcEEE
Hyprland:_ZN14CConfigManager18getAnimationConfigB5cxx11Ev
Hyprland:_ZN14CConfigManager18getConfigValueSafeERKNSt7__cxx1112basic_stringIcSt11char_traitsIcESaIcEEE
Hyprland:_ZN14CConfigManager18handleWindowRuleV2ERKNSt7__cxx1112basic_stringIcSt11char_traitsIcESaIcEEES7_
Hyprland:_ZN14CConfigManager18loadConfigLoadVarsEv
Hyprland:_ZN14CConfigManager18removePluginConfigEPv
Hyprland:_ZN14CConfigManager18setAnimForChildrenEP24SAnimationPropertyConfig
Hyprland:_ZN14CConfigManager19ensureMonitorStatusEv
Hyprland:_ZN14CConfigManager19getWorkspaceRuleForEP10CWorkspace
Hyprland:_ZN14CConfigManager19populateEnvironmentEv
Hyprland:_ZN14CConfigManager20applyUserDefinedVarsERNSt7__cxx1112basic_stringIcSt11char_traitsIcESaIcEEEm
Hyprland:_ZN14CConfigManager20getAllWorkspaceRulesEv
Hyprland:_ZN14CConfigManager20getBoundMonitorForWSERKNSt7__cxx1112basic_stringIcSt11char_traitsIcESaIcEEE
Hyprland:_ZN14CConfigManager20handleWorkspaceRulesERKNSt7__cxx1112basic_stringIcSt11char_traitsIcESaIcEEES7_
Hyprland:_ZN14CConfigManager20performMonitorReloadEv
Hyprland:_ZN14CConfigManager20setDeviceDefaultVarsERKNSt7__cxx1112basic_stringIcSt11char_traitsIcESaIcEEE
Hyprland:_ZN14CConfigManager21getConfigValuePtrSafeERKNSt7__cxx1112basic_stringIcSt11char_traitsIcESaIcEEE
Hyprland:_ZN14CConfigManager22getDefaultWorkspaceForERKNSt7__cxx1112basic_stringIcSt11char_traitsIcESaIcEEE
Hyprland:_ZN14CConfigManager23setDefaultAnimationVarsEv
Hyprland:_ZN14CConfigManager24getConfigValueSafeDeviceERKNSt7__cxx1112basic_stringIcSt11char_traitsIcESaIcEEES7_S7_
Hyprland:_ZN14CConfigManager26getAnimationPropertyConfigERKNSt7__cxx1112basic_stringIcSt11char_traitsIcESaIcEEE
Hyprland:_ZN14CConfigManager26getBoundMonitorStringForWSERKNSt7__cxx1112basic_stringIcSt11char_traitsIcESaIcEEE
Hyprland:_ZN14CConfigManager4initEv
Hyprland:_ZN14CConfigManager4tickEv
Hyprland:_ZN14CConfigManager6getIntERKNSt7__cxx1112basic_stringIcSt11char_traitsIcESaIcEEE
Hyprland:_ZN14CConfigManager6getVecERKNSt7__cxx1112basic_stringIcSt11char_traitsIcESaIcEEE
Hyprland:_ZN14CConfigManager6setIntERKNSt7__cxx1112basic_stringIcSt11char_traitsIcESaIcEEEi
Hyprland:_ZN14CConfigManager6setVecERKNSt7__cxx1112basic_stringIcSt11char_traitsIcESaIcEEE8Vector2D
Hyprland:_ZN14CConfigManager8getFloatERKNSt7__cxx1112basic_stringIcSt11char_traitsIcESaIcEEE
Hyprland:_ZN14CConfigManager8setFloatERKNSt7__cxx1112basic_stringIcSt11char_traitsIcESaIcEEEf
Hyprland:_ZN14CConfigManager9ensureVRREP8CMonitor
Hyprland:_ZN14CConfigManager9getStringERKNSt7__cxx1112basic_stringIcSt11char_traitsIcESaIcEEE
Hyprland:_ZN14CConfigManager9handleEnvERKNSt7__cxx1112basic_stringIcSt11char_traitsIcESaIcEEES7_
Hyprland:_ZN14CConfigManager9parseLineERNSt7__cxx1112basic_stringIcSt11char_traitsIcESaIcEEE
Hyprland:_ZN14CConfigManager9setStringERKNSt7__cxx1112basic_stringIcSt11char_traitsIcESaIcEEES7_
Hyprland:_ZN14CConfigManagerC1Ev
Hyprland:_ZN14CConfigManagerC2Ev
Hyprland:_ZN14CLayoutManager12removeLayoutEP11IHyprLayout
Hyprland:_ZN14CLayoutManager14switchToLayoutENSt7__cxx1112basic_stringIcSt11char_traitsIcESaIcEEE
Hyprland:_ZN14CLayoutManager16getCurrentLayoutEv
Hyprland:_ZN14CLayoutManager17getAllLayoutNamesB5cxx11Ev
Hyprland:_ZN14CLayoutManager9addLayoutERKNSt7__cxx1112basic_stringIcSt11char_traitsIcESaIcEEEP11IHyprLayout
Hyprland:_ZN14CLayoutManagerC1Ev
Hyprland:_ZN14CLayoutManagerC2Ev
Hyprland:_ZN14CThreadManagerC1Ev
Hyprland:_ZN14CThreadManagerC2Ev
Hyprland:_ZN14CThreadManagerD1Ev
Hyprland:_ZN14CThreadManagerD2Ev
Hyprland:_ZN14SubsurfaceTree14createTreeRootEP11wlr_surfacePFvPvPiS3_ES2_P7CWindow
Hyprland:_ZN14SubsurfaceTree18destroySurfaceTreeEP16SSurfaceTreeNode
Hyprland:_ZN15CHyprOpenGLImpl10renderRectEP4CBoxRK6CColori
Hyprland:_ZN15CHyprOpenGLImpl10saveMatrixEv
Hyprland:_ZN15CHyprOpenGLImpl11bindOffMainEv
Hyprland:_ZN15CHyprOpenGLImpl11initShadersEv
Hyprland:_ZN15CHyprOpenGLImpl12clearWithTexEv
Hyprland:_ZN15CHyprOpenGLImpl12renderBorderEP4CBoxRK18CGradientValueDataiifi
Hyprland:_ZN15CHyprOpenGLImpl12renderSplashEP6_cairoP14_cairo_surfaced
Hyprland:_ZN15CHyprOpenGLImpl13compileShaderERKjNSt7__cxx1112basic_stringIcSt11char_traitsIcESaIcEEEb
Hyprland:_ZN15CHyprOpenGLImpl13createProgramERKNSt7__cxx1112basic_stringIcSt11char_traitsIcESaIcEEES7_b
Hyprland:_ZN15CHyprOpenGLImpl13preBlurQueuedEv
Hyprland:_ZN15CHyprOpenGLImpl13preWindowPassEv
Hyprland:_ZN15CHyprOpenGLImpl13renderTextureEP11wlr_textureP4CBoxfib
Hyprland:_ZN15CHyprOpenGLImpl13renderTextureERK8CTextureP4CBoxfibb
Hyprland:_ZN15CHyprOpenGLImpl13restoreMatrixEv
Hyprland:_ZN15CHyprOpenGLImpl14bindBackOnMainEv
Hyprland:_ZN15CHyprOpenGLImpl14renderMirroredEv
Hyprland:_ZN15CHyprOpenGLImpl14renderSnapshotEPP13SLayerSurface
Hyprland:_ZN15CHyprOpenGLImpl14renderSnapshotEPP7CWindow
Hyprland:_ZN15CHyprOpenGLImpl15renderOffToMainEP12CFramebuffer
Hyprland:_ZN15CHyprOpenGLImpl17applyScreenShaderERKNSt7__cxx1112basic_stringIcSt11char_traitsIcESaIcEEE
Hyprland:_ZN15CHyprOpenGLImpl17makeLayerSnapshotEP13SLayerSurface
Hyprland:_ZN15CHyprOpenGLImpl18makeWindowSnapshotEP7CWindow
Hyprland:_ZN15CHyprOpenGLImpl18renderRectWithBlurEP4CBoxRK6CColorifb
Hyprland:_ZN15CHyprOpenGLImpl18renderTextureMatteERK8CTextureP4CBoxR12CFramebuffer
Hyprland:_ZN15CHyprOpenGLImpl19renderRoundedShadowEP4CBoxiiRK6CColorf
Hyprland:_ZN15CHyprOpenGLImpl19saveBufferForMirrorEv
Hyprland:_ZN15CHyprOpenGLImpl20renderRectWithDamageEP4CBoxRK6CColorP7CRegioni
Hyprland:_ZN15CHyprOpenGLImpl21getPixelFormatFromDRMEj
Hyprland:_ZN15CHyprOpenGLImpl21makeRawWindowSnapshotEP7CWindowP12CFramebuffer
Hyprland:_ZN15CHyprOpenGLImpl21renderTextureWithBlurERK8CTextureP4CBoxfP11wlr_surfaceibf
Hyprland:_ZN15CHyprOpenGLImpl22getPreferredReadFormatEP8CMonitor
Hyprland:_ZN15CHyprOpenGLImpl22renderTexturePrimitiveERK8CTextureP4CBox
Hyprland:_ZN15CHyprOpenGLImpl23destroyMonitorResourcesEP8CMonitor
Hyprland:_ZN15CHyprOpenGLImpl23markBlurDirtyForMonitorEP8CMonitor
Hyprland:_ZN15CHyprOpenGLImpl23setMatrixScaleTranslateERK8Vector2DRKf
Hyprland:_ZN15CHyprOpenGLImpl24preBlurForCurrentMonitorEv
Hyprland:_ZN15CHyprOpenGLImpl25createBGTextureForMonitorEP8CMonitor
Hyprland:_ZN15CHyprOpenGLImpl25passRequiresIntrospectionEP8CMonitor
Hyprland:_ZN15CHyprOpenGLImpl26setMonitorTransformEnabledEb
Hyprland:_ZN15CHyprOpenGLImpl29blurMainFramebufferWithDamageEfP7CRegion
Hyprland:_ZN15CHyprOpenGLImpl29shouldUseNewBlurOptimizationsEP13SLayerSurfaceP7CWindow
Hyprland:_ZN15CHyprOpenGLImpl31renderTextureInternalWithDamageERK8CTextureP4CBoxfP7CRegionibbbb
Hyprland:_ZN15CHyprOpenGLImpl3endEv
Hyprland:_ZN15CHyprOpenGLImpl5beginEP8CMonitorP7CRegionP12CFramebuffer
Hyprland:_ZN15CHyprOpenGLImpl5blendEb
Hyprland:_ZN15CHyprOpenGLImpl5clearERK6CColor
Hyprland:_ZN15CHyprOpenGLImpl7scissorEPK12pixman_box32b
Hyprland:_ZN15CHyprOpenGLImpl7scissorEPK4CBoxb
Hyprland:_ZN15CHyprOpenGLImpl7scissorEiiiib
Hyprland:_ZN15CHyprOpenGLImpl9preRenderEP8CMonitor
Hyprland:_ZN15CHyprOpenGLImplC1Ev
Hyprland:_ZN15CHyprOpenGLImplC2Ev
Hyprland:_ZN15CHyprWLListener11isConnectedEv
Hyprland:_ZN15CHyprWLListener12initCallbackEP9wl_signalSt8functionIFvPvS3_EES3_NSt7__cxx1112basic_stringIcSt11char_traitsIcESaIcEEE
Hyprland:_ZN15CHyprWLListener14removeCallbackEv
Hyprland:_ZN15CHyprWLListener4emitEPv
Hyprland:_ZN15CHyprWLListenerC1EP9wl_signalSt8functionIFvPvS3_EES3_
Hyprland:_ZN15CHyprWLListenerC1Ev
Hyprland:_ZN15CHyprWLListenerC2EP9wl_signalSt8functionIFvPvS3_EES3_
Hyprland:_ZN15CHyprWLListenerC2Ev
Hyprland:_ZN15CHyprWLListenerD1Ev
Hyprland:_ZN15CHyprWLListenerD2Ev
Hyprland:_ZN15CKeybindManager10addKeybindE8SKeybind
Hyprland:_ZN15CKeybindManager10circleNextENSt7__cxx1112basic_stringIcSt11char_traitsIcESaIcEEE
Hyprland:_ZN15CKeybindManager10killActiveENSt7__cxx1112basic_stringIcSt11char_traitsIcESaIcEEE
Hyprland:_ZN15CKeybindManager10lockGroupsENSt7__cxx1112basic_stringIcSt11char_traitsIcESaIcEEE
Hyprland:_ZN15CKeybindManager10moveActiveENSt7__cxx1112basic_stringIcSt11char_traitsIcESaIcEEE
Hyprland:_ZN15CKeybindManager10moveCursorENSt7__cxx1112basic_stringIcSt11char_traitsIcESaIcEEE
Hyprland:_ZN15CKeybindManager10moveWindowENSt7__cxx1112basic_stringIcSt11char_traitsIcESaIcEEE
Hyprland:_ZN15CKeybindManager10onKeyEventEP22wlr_keyboard_key_eventP9SKeyboard
Hyprland:_ZN15CKeybindManager10swapActiveENSt7__cxx1112basic_stringIcSt11char_traitsIcESaIcEEE
Hyprland:_ZN15CKeybindManager11alterZOrderENSt7__cxx1112basic_stringIcSt11char_traitsIcESaIcEEE
Hyprland:_ZN15CKeybindManager11focusWindowENSt7__cxx1112basic_stringIcSt11char_traitsIcESaIcEEE
Hyprland:_ZN15CKeybindManager11moveFocusToENSt7__cxx1112basic_stringIcSt11char_traitsIcESaIcEEE
Hyprland:_ZN15CKeybindManager11onAxisEventEP22wlr_pointer_axis_event
Hyprland:_ZN15CKeybindManager11toggleGroupENSt7__cxx1112basic_stringIcSt11char_traitsIcESaIcEEE
Hyprland:_ZN15CKeybindManager11toggleSplitENSt7__cxx1112basic_stringIcSt11char_traitsIcESaIcEEE
Hyprland:_ZN15CKeybindManager12centerWindowENSt7__cxx1112basic_stringIcSt11char_traitsIcESaIcEEE
Hyprland:_ZN15CKeybindManager12exitHyprlandENSt7__cxx1112basic_stringIcSt11char_traitsIcESaIcEEE
Hyprland:_ZN15CKeybindManager12focusMonitorENSt7__cxx1112basic_stringIcSt11char_traitsIcESaIcEEE
Hyprland:_ZN15CKeybindManager12moveActiveToENSt7__cxx1112basic_stringIcSt11char_traitsIcESaIcEEE
Hyprland:_ZN15CKeybindManager12onMouseEventEP24wlr_pointer_button_event
Hyprland:_ZN15CKeybindManager12resizeActiveENSt7__cxx1112basic_stringIcSt11char_traitsIcESaIcEEE
Hyprland:_ZN15CKeybindManager12resizeWindowENSt7__cxx1112basic_stringIcSt11char_traitsIcESaIcEEE
Hyprland:_ZN15CKeybindManager12toggleOpaqueENSt7__cxx1112basic_stringIcSt11char_traitsIcESaIcEEE
Hyprland:_ZN15CKeybindManager12workspaceOptENSt7__cxx1112basic_stringIcSt11char_traitsIcESaIcEEE
Hyprland:_ZN15CKeybindManager13clearKeybindsEv
Hyprland:_ZN15CKeybindManager13moveIntoGroupENSt7__cxx1112basic_stringIcSt11char_traitsIcESaIcEEE
Hyprland:_ZN15CKeybindManager13onSwitchEventERKNSt7__cxx1112basic_stringIcSt11char_traitsIcESaIcEEE
Hyprland:_ZN15CKeybindManager13removeKeybindEjRKNSt7__cxx1112basic_stringIcSt11char_traitsIcESaIcEEE
Hyprland:_ZN15CKeybindManager14handleKeybindsERKjRKNSt7__cxx1112basic_stringIcSt11char_traitsIcESaIcEEES1_RKibj
Hyprland:_ZN15CKeybindManager14moveOutOfGroupENSt7__cxx1112basic_stringIcSt11char_traitsIcESaIcEEE
Hyprland:_ZN15CKeybindManager14shadowKeybindsERKjRKi
Hyprland:_ZN15CKeybindManager14switchToWindowEP7CWindow
Hyprland:_ZN15CKeybindManager15alterSplitRatioENSt7__cxx1112basic_stringIcSt11char_traitsIcESaIcEEE
Hyprland:_ZN15CKeybindManager15changeworkspaceENSt7__cxx1112basic_stringIcSt11char_traitsIcESaIcEEE
Hyprland:_ZN15CKeybindManager15lockActiveGroupENSt7__cxx1112basic_stringIcSt11char_traitsIcESaIcEEE
Hyprland:_ZN15CKeybindManager15moveGroupWindowENSt7__cxx1112basic_stringIcSt11char_traitsIcESaIcEEE
Hyprland:_ZN15CKeybindManager15onSwitchOnEventERKNSt7__cxx1112basic_stringIcSt11char_traitsIcESaIcEEE
Hyprland:_ZN15CKeybindManager15renameWorkspaceENSt7__cxx1112basic_stringIcSt11char_traitsIcESaIcEEE
Hyprland:_ZN15CKeybindManager15stringToModMaskENSt7__cxx1112basic_stringIcSt11char_traitsIcESaIcEEE
Hyprland:_ZN15CKeybindManager16bringActiveToTopENSt7__cxx1112basic_stringIcSt11char_traitsIcESaIcEEE
Hyprland:_ZN15CKeybindManager16fullscreenActiveENSt7__cxx1112basic_stringIcSt11char_traitsIcESaIcEEE
Hyprland:_ZN15CKeybindManager16onSwitchOffEventERKNSt7__cxx1112basic_stringIcSt11char_traitsIcESaIcEEE
Hyprland:_ZN15CKeybindManager16resizeWithBorderEP24wlr_pointer_button_event
Hyprland:_ZN15CKeybindManager17changeGroupActiveENSt7__cxx1112basic_stringIcSt11char_traitsIcESaIcEEE
Hyprland:_ZN15CKeybindManager17focusUrgentOrLastENSt7__cxx1112basic_stringIcSt11char_traitsIcESaIcEEE
Hyprland:_ZN15CKeybindManager17moveWindowOrGroupENSt7__cxx1112basic_stringIcSt11char_traitsIcESaIcEEE
Hyprland:_ZN15CKeybindManager18focusCurrentOrLastENSt7__cxx1112basic_stringIcSt11char_traitsIcESaIcEEE
Hyprland:_ZN15CKeybindManager18moveCursorToCornerENSt7__cxx1112basic_stringIcSt11char_traitsIcESaIcEEE
Hyprland:_ZN15CKeybindManager18setIgnoreGroupLockENSt7__cxx1112basic_stringIcSt11char_traitsIcESaIcEEE
Hyprland:_ZN15CKeybindManager18toggleActivePseudoENSt7__cxx1112basic_stringIcSt11char_traitsIcESaIcEEE
Hyprland:_ZN15CKeybindManager19denyWindowFromGroupENSt7__cxx1112basic_stringIcSt11char_traitsIcESaIcEEE
Hyprland:_ZN15CKeybindManager19forceRendererReloadENSt7__cxx1112basic_stringIcSt11char_traitsIcESaIcEEE
Hyprland:_ZN15CKeybindManager19moveWindowIntoGroupEP7CWindowS1_
Hyprland:_ZN15CKeybindManager20ensureMouseBindStateEv
Hyprland:_ZN15CKeybindManager20fakeFullscreenActiveENSt7__cxx1112basic_stringIcSt11char_traitsIcESaIcEEE
Hyprland:_ZN15CKeybindManager20moveWindowOutOfGroupEP7CWindowRKNSt7__cxx1112basic_stringIcSt11char_traitsIcESaIcEEE
Hyprland:_ZN15CKeybindManager20swapActiveWorkspacesENSt7__cxx1112basic_stringIcSt11char_traitsIcESaIcEEE
Hyprland:_ZN15CKeybindManager20toggleActiveFloatingENSt7__cxx1112basic_stringIcSt11char_traitsIcESaIcEEE
Hyprland:_ZN15CKeybindManager21moveActiveToWorkspaceENSt7__cxx1112basic_stringIcSt11char_traitsIcESaIcEEE
Hyprland:_ZN15CKeybindManager21tryMoveFocusToMonitorEP8CMonitor
Hyprland:_ZN15CKeybindManager22handleInternalKeybindsEj
Hyprland:_ZN15CKeybindManager22moveWorkspaceToMonitorENSt7__cxx1112basic_stringIcSt11char_traitsIcESaIcEEE
Hyprland:_ZN15CKeybindManager22toggleSpecialWorkspaceENSt7__cxx1112basic_stringIcSt11char_traitsIcESaIcEEE
Hyprland:_ZN15CKeybindManager25updateXKBTranslationStateEv
Hyprland:_ZN15CKeybindManager27moveActiveToWorkspaceSilentENSt7__cxx1112basic_stringIcSt11char_traitsIcESaIcEEE
Hyprland:_ZN15CKeybindManager29moveCurrentWorkspaceToMonitorENSt7__cxx1112basic_stringIcSt11char_traitsIcESaIcEEE
Hyprland:_ZN15CKeybindManager4dpmsENSt7__cxx1112basic_stringIcSt11char_traitsIcESaIcEEE
Hyprland:_ZN15CKeybindManager4killENSt7__cxx1112basic_stringIcSt11char_traitsIcESaIcEEE
Hyprland:_ZN15CKeybindManager4passENSt7__cxx1112basic_stringIcSt11char_traitsIcESaIcEEE
Hyprland:_ZN15CKeybindManager5mouseENSt7__cxx1112basic_stringIcSt11char_traitsIcESaIcEEE
Hyprland:_ZN15CKeybindManager5spawnENSt7__cxx1112basic_stringIcSt11char_traitsIcESaIcEEE
Hyprland:_ZN15CKeybindManager6globalENSt7__cxx1112basic_stringIcSt11char_traitsIcESaIcEEE
Hyprland:_ZN15CKeybindManager8handleVTEj
Hyprland:_ZN15CKeybindManager8spawnRawENSt7__cxx1112basic_stringIcSt11char_traitsIcESaIcEEE
Hyprland:_ZN15CKeybindManager8swapnextENSt7__cxx1112basic_stringIcSt11char_traitsIcESaIcEEE
Hyprland:_ZN15CKeybindManager9layoutmsgENSt7__cxx1112basic_stringIcSt11char_traitsIcESaIcEEE
Hyprland:_ZN15CKeybindManager9pinActiveENSt7__cxx1112basic_stringIcSt11char_traitsIcESaIcEEE
Hyprland:_ZN15CKeybindManager9setSubmapENSt7__cxx1112basic_stringIcSt11char_traitsIcESaIcEEE
Hyprland:_ZN15CKeybindManagerC1Ev
Hyprland:_ZN15CKeybindManagerC2Ev
Hyprland:_ZN16CProtocolManagerC1Ev
Hyprland:_ZN16CProtocolManagerC2Ev
Hyprland:_ZN16CWaylandResource11markDefunctEv
Hyprland:_ZN16CWaylandResource17setImplementationEPKvPFvP11wl_resourceE
Hyprland:_ZN16CWaylandResource4dataEv
Hyprland:_ZN16CWaylandResource4goodEv
Hyprland:_ZN16CWaylandResource7setDataEPv
Hyprland:_ZN16CWaylandResource7versionEv
Hyprland:_ZN16CWaylandResource8resourceEv
Hyprland:_ZN16CWaylandResourceC1EP9wl_clientPK12wl_interfacejj
Hyprland:_ZN16CWaylandResourceC2EP9wl_clientPK12wl_interfacejj
Hyprland:_ZN16CWaylandResourceD1Ev
Hyprland:_ZN16CWaylandResourceD2Ev
Hyprland:_ZN16IWaylandProtocol16onDisplayDestroyEv
Hyprland:_ZN16IWaylandProtocolC1EPK12wl_interfaceRKiRKNSt7__cxx1112basic_stringIcSt11char_traitsIcESaIcEEE
Hyprland:_ZN16IWaylandProtocolC2EPK12wl_interfaceRKiRKNSt7__cxx1112basic_stringIcSt11char_traitsIcESaIcEEE
Hyprland:_ZN16IWaylandProtocolD1Ev
Hyprland:_ZN16IWaylandProtocolD2Ev
Hyprland:_ZN16SDwindleNodeData22recalcSizePosRecursiveEbbb
Hyprland:_ZN16SDwindleNodeData23getAllChildrenRecursiveEPSt5dequeIPS_SaIS1_EE
Hyprland:_ZN17CAnimatedVariable10getPercentEv
Hyprland:_ZN17CAnimatedVariable10unregisterEv
Hyprland:_ZN17CAnimatedVariable11registerVarEv
Hyprland:_ZN17CAnimatedVariable13getCurveValueEv
Hyprland:_ZN17CAnimatedVariable15connectToActiveEv
Hyprland:_ZN17CAnimatedVariable17getDurationLeftMsEv
Hyprland:_ZN17CAnimatedVariable20disconnectFromActiveEv
Hyprland:_ZN17CAnimatedVariable6createE15ANIMATEDVARTYPEP24SAnimationPropertyConfigPv16AVARDAMAGEPOLICY
Hyprland:_ZN17CAnimatedVariable6createE15ANIMATEDVARTYPESt3anyP24SAnimationPropertyConfigPv16AVARDAMAGEPOLICY
Hyprland:_ZN17CAnimatedVariableC1Ev
Hyprland:_ZN17CAnimatedVariableC2Ev
Hyprland:_ZN17CAnimatedVariableD1Ev
Hyprland:_ZN17CAnimatedVariableD2Ev
Hyprland:_ZN17CAnimationManager12bezierExistsERKNSt7__cxx1112basic_stringIcSt11char_traitsIcESaIcEEE
Hyprland:_ZN17CAnimationManager12scheduleTickEv
Hyprland:_ZN17CAnimationManager13getAllBeziersB5cxx11Ev
Hyprland:_ZN17CAnimationManager14animationPopinEP7CWindowbf
Hyprland:_ZN17CAnimationManager14animationSlideEP7CWindowNSt7__cxx1112basic_stringIcSt11char_traitsIcESaIcEEEb
Hyprland:_ZN17CAnimationManager16deltaSmallToFlipERK6CColorS2_
Hyprland:_ZN17CAnimationManager16deltaSmallToFlipERK8Vector2DS2_
Hyprland:_ZN17CAnimationManager16deltaSmallToFlipERKfS1_
Hyprland:_ZN17CAnimationManager16removeAllBeziersEv
Hyprland:_ZN17CAnimationManager17addBezierWithNameENSt7__cxx1112basic_stringIcSt11char_traitsIcESaIcEEERK8Vector2DS8_
Hyprland:_ZN17CAnimationManager17shouldTickForNextEv
Hyprland:_ZN17CAnimationManager21styleValidInConfigVarERKNSt7__cxx1112basic_stringIcSt11char_traitsIcESaIcEEES7_
Hyprland:_ZN17CAnimationManager23onWindowPostCreateCloseEP7CWindowb
Hyprland:_ZN17CAnimationManager4tickEv
Hyprland:_ZN17CAnimationManager8onTickedEv
Hyprland:_ZN17CAnimationManager9deltazeroERK6CColorS2_
Hyprland:_ZN17CAnimationManager9deltazeroERK8Vector2DS2_
Hyprland:_ZN17CAnimationManager9deltazeroERKfS1_
Hyprland:_ZN17CAnimationManager9getBezierERKNSt7__cxx1112basic_stringIcSt11char_traitsIcESaIcEEE
Hyprland:_ZN17CAnimationManagerC1Ev
Hyprland:_ZN17CAnimationManagerC2Ev
Hyprland:_ZN17CHyprDebugOverlay10renderDataEP8CMonitorf
Hyprland:_ZN17CHyprDebugOverlay19renderDataNoOverlayEP8CMonitorf
Hyprland:_ZN17CHyprDebugOverlay4drawEv
Hyprland:_ZN17CHyprDebugOverlay9frameDataEP8CMonitor
Hyprland:_ZN17CHyprMasterLayout12moveWindowToEP7CWindowRKNSt7__cxx1112basic_stringIcSt11char_traitsIcESaIcEEE
Hyprland:_ZN17CHyprMasterLayout13getLayoutNameB5cxx11Ev
Hyprland:_ZN17CHyprMasterLayout13getNextWindowEP7CWindowb
Hyprland:_ZN17CHyprMasterLayout13isWindowTiledEP7CWindow
Hyprland:_ZN17CHyprMasterLayout13layoutMessageE20SLayoutMessageHeaderNSt7__cxx1112basic_stringIcSt11char_traitsIcESaIcEEE
Hyprland:_ZN17CHyprMasterLayout13switchWindowsEP7CWindowS1_
Hyprland:_ZN17CHyprMasterLayout15alterSplitRatioEP7CWindowfb
Hyprland:_ZN17CHyprMasterLayout15prepareNewFocusEP7CWindowb
Hyprland:_ZN17CHyprMasterLayout16prepareLoseFocusEP7CWindow
Hyprland:_ZN17CHyprMasterLayout17getNodeFromWindowEP7CWindow
Hyprland:_ZN17CHyprMasterLayout17recalculateWindowEP7CWindow
Hyprland:_ZN17CHyprMasterLayout18calculateWorkspaceERKi
Hyprland:_ZN17CHyprMasterLayout18recalculateMonitorERKi
Hyprland:_ZN17CHyprMasterLayout18requestRenderHintsEP7CWindow
Hyprland:_ZN17CHyprMasterLayout18resizeActiveWindowERK8Vector2D11eRectCornerP7CWindow
Hyprland:_ZN17CHyprMasterLayout19getNodesOnWorkspaceERKi
Hyprland:_ZN17CHyprMasterLayout19runOrientationCycleER20SLayoutMessageHeaderP8CVarListi
Hyprland:_ZN17CHyprMasterLayout21applyNodeDataToWindowEP15SMasterNodeData
Hyprland:_ZN17CHyprMasterLayout21getMastersOnWorkspaceERKi
Hyprland:_ZN17CHyprMasterLayout21onWindowCreatedTilingEP7CWindow10eDirection
Hyprland:_ZN17CHyprMasterLayout21onWindowRemovedTilingEP7CWindow
Hyprland:_ZN17CHyprMasterLayout21replaceWindowDataWithEP7CWindowS1_
Hyprland:_ZN17CHyprMasterLayout22getMasterWorkspaceDataERKi
Hyprland:_ZN17CHyprMasterLayout24getMasterNodeOnWorkspaceERKi
Hyprland:_ZN17CHyprMasterLayout26fullscreenRequestForWindowEP7CWindow15eFullscreenModeb
Hyprland:_ZN17CHyprMasterLayout35buildOrientationCycleVectorFromVarsERSt6vectorI12eOrientationSaIS1_EER8CVarList
Hyprland:_ZN17CHyprMasterLayout41buildOrientationCycleVectorFromEOperationERSt6vectorI12eOrientationSaIS1_EE
Hyprland:_ZN17CHyprMasterLayout8onEnableEv
Hyprland:_ZN17CHyprMasterLayout9onDisableEv
Hyprland:_ZN17CInputMethodRelay11damagePopupEP9SIMEPopup
Hyprland:_ZN17CInputMethodRelay11removePopupEP9SIMEPopup
Hyprland:_ZN17CInputMethodRelay14commitIMEStateEP10STextInput
Hyprland:_ZN17CInputMethodRelay14focusedSurfaceEP10STextInput
Hyprland:_ZN17CInputMethodRelay14onNewTextInputEP17wlr_text_input_v3
Hyprland:_ZN17CInputMethodRelay15onKeyboardFocusEP11wlr_surface
Hyprland:_ZN17CInputMethodRelay15removeTextInputEP10STextInput
Hyprland:_ZN17CInputMethodRelay16setIMEPopupFocusEP9SIMEPopupP11wlr_surface
Hyprland:_ZN17CInputMethodRelay16updateInputPopupEP9SIMEPopup
Hyprland:_ZN17CInputMethodRelay17setPendingSurfaceEP10STextInputP11wlr_surface
Hyprland:_ZN17CInputMethodRelay18createNewTextInputEP17wlr_text_input_v3P12STextInputV1
Hyprland:_ZN17CInputMethodRelay18getIMEKeyboardGrabEP9SKeyboard
Hyprland:_ZN17CInputMethodRelay19getFocusedTextInputEv
Hyprland:_ZN17CInputMethodRelay21getFocusableTextInputEv
Hyprland:_ZN17CInputMethodRelay8onNewIMEEP19wlr_input_method_v2
Hyprland:_ZN17CInputMethodRelayC1Ev
Hyprland:_ZN17CInputMethodRelayC2Ev
Hyprland:_ZN17CScreencopyClient6onTickEv
Hyprland:_ZN17CScreencopyClientC1Ev
Hyprland:_ZN17CScreencopyClientC2Ev
Hyprland:_ZN17CScreencopyClientD1Ev
Hyprland:_ZN17CScreencopyClientD2Ev
Hyprland:_ZN18CHookSystemManager10hookStaticERKNSt7__cxx1112basic_stringIcSt11char_traitsIcESaIcEEEPSt8functionIFvPvR13SCallbackInfoSt3anyEES9_
Hyprland:_ZN18CHookSystemManager11hookDynamicERKNSt7__cxx1112basic_stringIcSt11char_traitsIcESaIcEEESt8functionIFvPvR13SCallbackInfoSt3anyEES9_
Hyprland:_ZN18CHookSystemManager14getVecForEventERKNSt7__cxx1112basic_stringIcSt11char_traitsIcESaIcEEE
Hyprland:_ZN18CHookSystemManager4emitEPKSt6vectorI14SCallbackFNPtrSaIS1_EER13SCallbackInfoSt3any
Hyprland:_ZN18CHookSystemManager6unhookEPSt8functionIFvPvR13SCallbackInfoSt3anyEE
Hyprland:_ZN18CHookSystemManagerC1Ev
Hyprland:_ZN18CHookSystemManagerC2Ev
Hyprland:_ZN18CHyprDwindleLayout11toggleSplitEP7CWindow
Hyprland:_ZN18CHyprDwindleLayout12moveWindowToEP7CWindowRKNSt7__cxx1112basic_stringIcSt11char_traitsIcESaIcEEE
Hyprland:_ZN18CHyprDwindleLayout13getLayoutNameB5cxx11Ev
Hyprland:_ZN18CHyprDwindleLayout13isWindowTiledEP7CWindow
Hyprland:_ZN18CHyprDwindleLayout13layoutMessageE20SLayoutMessageHeaderNSt7__cxx1112basic_stringIcSt11char_traitsIcESaIcEEE
Hyprland:_ZN18CHyprDwindleLayout13switchWindowsEP7CWindowS1_
Hyprland:_ZN18CHyprDwindleLayout15alterSplitRatioEP7CWindowfb
Hyprland:_ZN18CHyprDwindleLayout17getNodeFromWindowEP7CWindow
Hyprland:_ZN18CHyprDwindleLayout17onBeginDragWindowEv
Hyprland:_ZN18CHyprDwindleLayout17recalculateWindowEP7CWindow
Hyprland:_ZN18CHyprDwindleLayout18recalculateMonitorERKi
Hyprland:_ZN18CHyprDwindleLayout18requestRenderHintsEP7CWindow
Hyprland:_ZN18CHyprDwindleLayout18resizeActiveWindowERK8Vector2D11eRectCornerP7CWindow
Hyprland:_ZN18CHyprDwindleLayout19getNodesOnWorkspaceERKi
Hyprland:_ZN18CHyprDwindleLayout21applyNodeDataToWindowEP16SDwindleNodeDatab
Hyprland:_ZN18CHyprDwindleLayout21onWindowCreatedTilingEP7CWindow10eDirection
Hyprland:_ZN18CHyprDwindleLayout21onWindowRemovedTilingEP7CWindow
Hyprland:_ZN18CHyprDwindleLayout21replaceWindowDataWithEP7CWindowS1_
Hyprland:_ZN18CHyprDwindleLayout23getFirstNodeOnWorkspaceERKi
Hyprland:_ZN18CHyprDwindleLayout24getMasterNodeOnWorkspaceERKi
Hyprland:_ZN18CHyprDwindleLayout26fullscreenRequestForWindowEP7CWindow15eFullscreenModeb
Hyprland:_ZN18CHyprDwindleLayout8onEnableEv
Hyprland:_ZN18CHyprDwindleLayout9onDisableEv
Hyprland:_ZN18CXDGOutputProtocol11bindManagerEP9wl_clientPvjj
Hyprland:_ZN18CXDGOutputProtocol16updateAllOutputsEv
Hyprland:_ZN18CXDGOutputProtocol19updateOutputDetailsEP10SXDGOutput
Hyprland:_ZN18CXDGOutputProtocol21onManagerGetXDGOutputEP9wl_clientP11wl_resourcejS3_
Hyprland:_ZN18CXDGOutputProtocol23onOutputResourceDestroyEP11wl_resource
Hyprland:_ZN18CXDGOutputProtocol24onManagerResourceDestroyEP11wl_resource
Hyprland:_ZN18CXDGOutputProtocolC1EPK12wl_interfaceRKiRKNSt7__cxx1112basic_stringIcSt11char_traitsIcESaIcEEE
Hyprland:_ZN18CXDGOutputProtocolC2EPK12wl_interfaceRKiRKNSt7__cxx1112basic_stringIcSt11char_traitsIcESaIcEEE
Hyprland:_ZN18IWindowTransformer15preWindowRenderEP11SRenderData
Hyprland:_ZN19CSessionLockManager12activateLockEv
Hyprland:_ZN19CSessionLockManager15isSessionLockedEv
Hyprland:_ZN19CSessionLockManager16onNewSessionLockEP19wlr_session_lock_v1
Hyprland:_ZN19CSessionLockManager20isSurfaceSessionLockEP11wlr_surface
Hyprland:_ZN19CSessionLockManager24removeSessionLockSurfaceEP19SSessionLockSurface
Hyprland:_ZN19CSessionLockManager31getSessionLockSurfaceForMonitorERKi
Hyprland:_ZN20CHyprXWaylandManager12checkBordersEP7CWindow
Hyprland:_ZN20CHyprXWaylandManager13getAppIDClassB5cxx11EP7CWindow
Hyprland:_ZN20CHyprXWaylandManager13setWindowSizeEP7CWindow8Vector2Db
Hyprland:_ZN20CHyprXWaylandManager14activateWindowEP7CWindowb
Hyprland:_ZN20CHyprXWaylandManager15activateSurfaceEP11wlr_surfaceb
Hyprland:_ZN20CHyprXWaylandManager15sendCloseWindowEP7CWindow
Hyprland:_ZN20CHyprXWaylandManager15shouldBeFloatedEP7CWindow
Hyprland:_ZN20CHyprXWaylandManager16getWindowSurfaceEP7CWindow
Hyprland:_ZN20CHyprXWaylandManager18moveXWaylandWindowEP7CWindowRK8Vector2D
Hyprland:_ZN20CHyprXWaylandManager19getMaxSizeForWindowEP7CWindow
Hyprland:_ZN20CHyprXWaylandManager19setWindowFullscreenEP7CWindowb
Hyprland:_ZN20CHyprXWaylandManager19setWindowStyleTiledEP7CWindowj
Hyprland:_ZN20CHyprXWaylandManager20getGeometryForWindowEP7CWindowP4CBox
Hyprland:_ZN20CHyprXWaylandManager23xwaylandToWaylandCoordsERK8Vector2D
Hyprland:_ZN20CHyprXWaylandManager8getTitleB5cxx11EP7CWindow
Hyprland:_ZN20CHyprXWaylandManager9surfaceAtEP7CWindowRK8Vector2DRS2_
Hyprland:_ZN20CHyprXWaylandManagerC1Ev
Hyprland:_ZN20CHyprXWaylandManagerC2Ev
Hyprland:_ZN20CHyprXWaylandManagerD1Ev
Hyprland:_ZN20CHyprXWaylandManagerD2Ev
Hyprland:_ZN21CDecorationPositioner10getDataForEP21IHyprWindowDecorationP7CWindow
Hyprland:_ZN21CDecorationPositioner11onWindowMapEP7CWindow
Hyprland:_ZN21CDecorationPositioner13onWindowUnmapEP7CWindow
Hyprland:_ZN21CDecorationPositioner13sanitizeDatasEv
Hyprland:_ZN21CDecorationPositioner14forceRecalcForEP7CWindow
Hyprland:_ZN21CDecorationPositioner14onWindowUpdateEP7CWindow
Hyprland:_ZN21CDecorationPositioner14repositionDecoEP21IHyprWindowDecoration
Hyprland:_ZN21CDecorationPositioner17uncacheDecorationEP21IHyprWindowDecoration
Hyprland:_ZN21CDecorationPositioner19getEdgeDefinedPointEjP7CWindow
Hyprland:_ZN21CDecorationPositioner22getWindowDecorationBoxEP21IHyprWindowDecoration
Hyprland:_ZN21CDecorationPositioner23getBoxWithIncludedDecosEP7CWindow
Hyprland:_ZN21CDecorationPositioner26getWindowDecorationExtentsEP7CWindowb
Hyprland:_ZN21CDecorationPositioner27getWindowDecorationReservedEP7CWindow
Hyprland:_ZN21CDecorationPositionerC1Ev
Hyprland:_ZN21CDecorationPositionerC2Ev
Hyprland:_ZN21CHyprBorderDecoration12damageEntireEv
Hyprland:_ZN21CHyprBorderDecoration12updateWindowEP7CWindow
Hyprland:_ZN21CHyprBorderDecoration14getDisplayNameB5cxx11Ev
Hyprland:_ZN21CHyprBorderDecoration17assignedBoxGlobalEv
Hyprland:_ZN21CHyprBorderDecoration17doesntWantBordersEv
Hyprland:_ZN21CHyprBorderDecoration17getDecorationTypeEv
Hyprland:_ZN21CHyprBorderDecoration18getDecorationFlagsEv
Hyprland:_ZN21CHyprBorderDecoration18getDecorationLayerEv
Hyprland:_ZN21CHyprBorderDecoration18getPositioningInfoEv
Hyprland:_ZN21CHyprBorderDecoration18onPositioningReplyERK27SDecorationPositioningReply
Hyprland:_ZN21CHyprBorderDecoration4drawEP8CMonitorfRK8Vector2D
Hyprland:_ZN21CHyprBorderDecorationC1EP7CWindow
Hyprland:_ZN21CHyprBorderDecorationC2EP7CWindow
Hyprland:_ZN21CHyprBorderDecorationD0Ev
Hyprland:_ZN21CHyprBorderDecorationD1Ev
Hyprland:_ZN21CHyprBorderDecorationD2Ev
Hyprland:_ZN21IHyprWindowDecoration13onInputOnDecoE10eInputTypeRK8Vector2DSt3any
Hyprland:_ZN21IHyprWindowDecoration14getDisplayNameB5cxx11Ev
Hyprland:_ZN21IHyprWindowDecoration18getDecorationFlagsEv
Hyprland:_ZN21IHyprWindowDecoration18getDecorationLayerEv
Hyprland:_ZN21IHyprWindowDecorationC1EP7CWindow
Hyprland:_ZN21IHyprWindowDecorationC2EP7CWindow
Hyprland:_ZN21IHyprWindowDecorationD0Ev
Hyprland:_ZN21IHyprWindowDecorationD1Ev
Hyprland:_ZN21IHyprWindowDecorationD2Ev
Hyprland:_ZN22ICustomConfigValueDataD0Ev
Hyprland:_ZN22ICustomConfigValueDataD1Ev
Hyprland:_ZN22ICustomConfigValueDataD2Ev
Hyprland:_ZN23CHyprGroupBarDecoration12damageEntireEv
Hyprland:_ZN23CHyprGroupBarDecoration12updateWindowEP7CWindow
Hyprland:_ZN23CHyprGroupBarDecoration13onInputOnDecoE10eInputTypeRK8Vector2DSt3any
Hyprland:_ZN23CHyprGroupBarDecoration14getDisplayNameB5cxx11Ev
Hyprland:_ZN23CHyprGroupBarDecoration14onScrollOnDecoERK8Vector2DP22wlr_pointer_axis_event
Hyprland:_ZN23CHyprGroupBarDecoration16textureFromTitleERKNSt7__cxx1112basic_stringIcSt11char_traitsIcESaIcEEE
Hyprland:_ZN23CHyprGroupBarDecoration17assignedBoxGlobalEv
Hyprland:_ZN23CHyprGroupBarDecoration17getDecorationTypeEv
Hyprland:_ZN23CHyprGroupBarDecoration18getDecorationFlagsEv
Hyprland:_ZN23CHyprGroupBarDecoration18getDecorationLayerEv
Hyprland:_ZN23CHyprGroupBarDecoration18getPositioningInfoEv
Hyprland:_ZN23CHyprGroupBarDecoration18invalidateTexturesEv
Hyprland:_ZN23CHyprGroupBarDecoration18onPositioningReplyERK27SDecorationPositioningReply
Hyprland:_ZN23CHyprGroupBarDecoration19onMouseButtonOnDecoERK8Vector2DP24wlr_pointer_button_event
Hyprland:_ZN23CHyprGroupBarDecoration21onEndWindowDragOnDecoERK8Vector2DP7CWindow
Hyprland:_ZN23CHyprGroupBarDecoration23onBeginWindowDragOnDecoERK8Vector2D
Hyprland:_ZN23CHyprGroupBarDecoration4drawEP8CMonitorfRK8Vector2D
Hyprland:_ZN23CHyprGroupBarDecorationC1EP7CWindow
Hyprland:_ZN23CHyprGroupBarDecorationC2EP7CWindow
Hyprland:_ZN23CHyprGroupBarDecorationD0Ev
Hyprland:_ZN23CHyprGroupBarDecorationD1Ev
Hyprland:_ZN23CHyprGroupBarDecorationD2Ev
Hyprland:_ZN24CHyprMonitorDebugOverlay10renderDataEP8CMonitorf
Hyprland:_ZN24CHyprMonitorDebugOverlay19renderDataNoOverlayEP8CMonitorf
Hyprland:_ZN24CHyprMonitorDebugOverlay4drawEi
Hyprland:_ZN24CHyprMonitorDebugOverlay9frameDataEP8CMonitor
Hyprland:_ZN24CHyprNotificationOverlay15addNotificationERKNSt7__cxx1112basic_stringIcSt11char_traitsIcESaIcEEERK6CColorf6eIcons
Hyprland:_ZN24CHyprNotificationOverlay17drawNotificationsEP8CMonitor
Hyprland:_ZN24CHyprNotificationOverlay4drawEP8CMonitor
Hyprland:_ZN24CHyprNotificationOverlayC1Ev
Hyprland:_ZN24CHyprNotificationOverlayC2Ev
Hyprland:_ZN25CHyprDropShadowDecoration12damageEntireEv
Hyprland:_ZN25CHyprDropShadowDecoration12updateWindowEP7CWindow
Hyprland:_ZN25CHyprDropShadowDecoration14getDisplayNameB5cxx11Ev
Hyprland:_ZN25CHyprDropShadowDecoration17getDecorationTypeEv
Hyprland:_ZN25CHyprDropShadowDecoration18getDecorationFlagsEv
Hyprland:_ZN25CHyprDropShadowDecoration18getDecorationLayerEv
Hyprland:_ZN25CHyprDropShadowDecoration18getPositioningInfoEv
Hyprland:_ZN25CHyprDropShadowDecoration18onPositioningReplyERK27SDecorationPositioningReply
Hyprland:_ZN25CHyprDropShadowDecoration4drawEP8CMonitorfRK8Vector2D
Hyprland:_ZN25CHyprDropShadowDecorationC1EP7CWindow
Hyprland:_ZN25CHyprDropShadowDecorationC2EP7CWindow
Hyprland:_ZN25CHyprDropShadowDecorationD0Ev
Hyprland:_ZN25CHyprDropShadowDecorationD1Ev
Hyprland:_ZN25CHyprDropShadowDecorationD2Ev
Hyprland:_ZN26CScreencopyProtocolManager10shareFrameEP16SScreencopyFrame
Hyprland:_ZN26CScreencopyProtocolManager11bindManagerEP9wl_clientPvjj
Hyprland:_ZN26CScreencopyProtocolManager11removeFrameEP16SScreencopyFrameb
Hyprland:_ZN26CScreencopyProtocolManager12copyFrameShmEP16SScreencopyFrameP8timespec
Hyprland:_ZN26CScreencopyProtocolManager12removeClientEP17CScreencopyClientb
Hyprland:_ZN26CScreencopyProtocolManager13captureOutputEP9wl_clientP11wl_resourcejiS3_4CBox
Hyprland:_ZN26CScreencopyProtocolManager14displayDestroyEv
Hyprland:_ZN26CScreencopyProtocolManager14onOutputCommitEP8CMonitorP23wlr_output_event_commit
Hyprland:_ZN26CScreencopyProtocolManager14shareAllFramesEP8CMonitor
Hyprland:_ZN26CScreencopyProtocolManager15copyFrameDmabufEP16SScreencopyFrame
Hyprland:_ZN26CScreencopyProtocolManager15sendFrameDamageEP16SScreencopyFrame
Hyprland:_ZN26CScreencopyProtocolManager9copyFrameEP9wl_clientP11wl_resourceS3_
Hyprland:_ZN26CScreencopyProtocolManagerC1Ev
Hyprland:_ZN26CScreencopyProtocolManagerC2Ev
Hyprland:_ZN27CTextInputV1ProtocolManager11bindManagerEP9wl_clientPvjj
Hyprland:_ZN27CTextInputV1ProtocolManager11handleResetEP9wl_clientP11wl_resource
Hyprland:_ZN27CTextInputV1ProtocolManager14displayDestroyEv
Hyprland:_ZN27CTextInputV1ProtocolManager14handleActivateEP9wl_clientP11wl_resourceS3_S3_
Hyprland:_ZN27CTextInputV1ProtocolManager16handleDeactivateEP9wl_clientP11wl_resourceS3_
Hyprland:_ZN27CTextInputV1ProtocolManager17handleCommitStateEP9wl_clientP11wl_resourcej
Hyprland:_ZN27CTextInputV1ProtocolManager18handleInvokeActionEP9wl_clientP11wl_resourcejj
Hyprland:_ZN27CTextInputV1ProtocolManager20handleHideInputPanelEP9wl_clientP11wl_resource
Hyprland:_ZN27CTextInputV1ProtocolManager20handleSetContentTypeEP9wl_clientP11wl_resourcejj
Hyprland:_ZN27CTextInputV1ProtocolManager20handleShowInputPanelEP9wl_clientP11wl_resource
Hyprland:_ZN27CTextInputV1ProtocolManager24handleSetCursorRectangleEP9wl_clientP11wl_resourceiiii
Hyprland:_ZN27CTextInputV1ProtocolManager24handleSetSurroundingTextEP9wl_clientP11wl_resourcePKcjj
Hyprland:_ZN27CTextInputV1ProtocolManager26handleSetPreferredLanguageEP9wl_clientP11wl_resourcePKc
Hyprland:_ZN27CTextInputV1ProtocolManager8createTIEP9wl_clientP11wl_resourcej
Hyprland:_ZN27CTextInputV1ProtocolManager8removeTIEP12STextInputV1
Hyprland:_ZN27CTextInputV1ProtocolManagerC1Ev
Hyprland:_ZN27CTextInputV1ProtocolManagerC2Ev
Hyprland:_ZN30CToplevelExportProtocolManager10sendDamageEP16SScreencopyFrame
Hyprland:_ZN30CToplevelExportProtocolManager10shareFrameEP16SScreencopyFrame
Hyprland:_ZN30CToplevelExportProtocolManager11bindManagerEP9wl_clientPvjj
Hyprland:_ZN30CToplevelExportProtocolManager11removeFrameEP16SScreencopyFrameb
Hyprland:_ZN30CToplevelExportProtocolManager12copyFrameShmEP16SScreencopyFrameP8timespec
Hyprland:_ZN30CToplevelExportProtocolManager12removeClientEP17CScreencopyClientb
Hyprland:_ZN30CToplevelExportProtocolManager13onWindowUnmapEP7CWindow
Hyprland:_ZN30CToplevelExportProtocolManager14displayDestroyEv
Hyprland:_ZN30CToplevelExportProtocolManager14onOutputCommitEP8CMonitorP23wlr_output_event_commit
Hyprland:_ZN30CToplevelExportProtocolManager15captureToplevelEP9wl_clientP11wl_resourcejiP7CWindow
Hyprland:_ZN30CToplevelExportProtocolManager15copyFrameDmabufEP16SScreencopyFrameP8timespec
Hyprland:_ZN30CToplevelExportProtocolManager9copyFrameEP9wl_clientP11wl_resourceS3_i
Hyprland:_ZN30CToplevelExportProtocolManagerC1Ev
Hyprland:_ZN30CToplevelExportProtocolManagerC2Ev
Hyprland:_ZN31CFractionalScaleProtocolManager11bindManagerEP9wl_clientPvjj
Hyprland:_ZN31CFractionalScaleProtocolManager11removeAddonEP11wlr_surface
Hyprland:_ZN31CFractionalScaleProtocolManager14displayDestroyEv
Hyprland:_ZN31CFractionalScaleProtocolManager18getAddonForSurfaceEP11wlr_surface
Hyprland:_ZN31CFractionalScaleProtocolManager18getFractionalScaleEP9wl_clientP11wl_resourcejS3_
Hyprland:_ZN31CFractionalScaleProtocolManager27setPreferredScaleForSurfaceEP11wlr_surfaced
Hyprland:_ZN31CFractionalScaleProtocolManagerC1Ev
Hyprland:_ZN31CFractionalScaleProtocolManagerC2Ev
Hyprland:_ZN31CGlobalShortcutsProtocolManager11bindManagerEP9wl_clientPvjj
Hyprland:_ZN31CGlobalShortcutsProtocolManager14displayDestroyEv
Hyprland:_ZN31CGlobalShortcutsProtocolManager15destroyShortcutEP11wl_resource
Hyprland:_ZN31CGlobalShortcutsProtocolManager15getAllShortcutsEv
Hyprland:_ZN31CGlobalShortcutsProtocolManager16registerShortcutEP9wl_clientP11wl_resourcejPKcS5_S5_S5_
Hyprland:_ZN31CGlobalShortcutsProtocolManager18clientFromWlClientEP9wl_client
Hyprland:_ZN31CGlobalShortcutsProtocolManager20globalShortcutExistsENSt7__cxx1112basic_stringIcSt11char_traitsIcESaIcEEES5_
Hyprland:_ZN31CGlobalShortcutsProtocolManager23sendGlobalShortcutEventENSt7__cxx1112basic_stringIcSt11char_traitsIcESaIcEEES5_b
Hyprland:_ZN31CGlobalShortcutsProtocolManagerC1Ev
Hyprland:_ZN31CGlobalShortcutsProtocolManagerC2Ev
Hyprland:_ZN4CBox10addExtentsERK24SWindowDecorationExtents
Hyprland:_ZN4CBox11extentsFromERKS_
Hyprland:_ZN4CBox12applyFromWlrEv
Hyprland:_ZN4CBox13roundInternalEv
Hyprland:_ZN4CBox15scaleFromCenterEd
Hyprland:_ZN4CBox3wlrEv
Hyprland:_ZN4CBox4pWlrEv
Hyprland:_ZN4CBox5roundEv
Hyprland:_ZN4CBox5scaleERK8Vector2D
Hyprland:_ZN4CBox5scaleEd
Hyprland:_ZN4CBox6expandERKd
Hyprland:_ZN4CBox9transformE19wl_output_transformdd
Hyprland:_ZN4CBox9translateERK8Vector2D
Hyprland:_ZN4Init12gainRealTimeEv
Hyprland:_ZN4Init6isSudoEv
Hyprland:_ZN5Debug4initERKNSt7__cxx1112basic_stringIcSt11char_traitsIcESaIcEEE
Hyprland:_ZN5Debug6wlrLogE18wlr_log_importancePKcP13__va_list_tag
Hyprland:_ZN6CColor8getAsHexEv
Hyprland:_ZN6CColorC1Effff
Hyprland:_ZN6CColorC1Em
Hyprland:_ZN6CColorC1Ev
Hyprland:_ZN6CColorC2Effff
Hyprland:_ZN6CColorC2Em
Hyprland:_ZN6CColorC2Ev
Hyprland:_ZN6CTimer10getSecondsEv
Hyprland:_ZN6CTimer11getDurationEv
Hyprland:_ZN6CTimer5resetEv
Hyprland:_ZN6CTimer9getMillisEv
Hyprland:_ZN6Events15listener_changeEP11wl_listenerPv
Hyprland:_ZN6Events15listener_newIMEEP11wl_listenerPv
Hyprland:_ZN6Events16listener_holdEndEP11wl_listenerPv
Hyprland:_ZN6Events17listener_newInputEP11wl_listenerPv
Hyprland:_ZN6Events17listener_newPopupEPvS0_
Hyprland:_ZN6Events17listener_pinchEndEP11wl_listenerPv
Hyprland:_ZN6Events17listener_setGammaEP11wl_listenerPv
Hyprland:_ZN6Events17listener_swipeEndEP11wl_listenerPv
Hyprland:_ZN6Events17listener_touchEndEP11wl_listenerPv
Hyprland:_ZN6Events18listener_holdBeginEP11wl_listenerPv
Hyprland:_ZN6Events18listener_mapWindowEPvS0_
Hyprland:_ZN6Events18listener_mouseAxisEP11wl_listenerPv
Hyprland:_ZN6Events18listener_mouseMoveEP11wl_listenerPv
Hyprland:_ZN6Events18listener_newOutputEP11wl_listenerPv
Hyprland:_ZN6Events18listener_startDragEP11wl_listenerPv
Hyprland:_ZN6Events19listener_NewXDGDecoEP11wl_listenerPv
Hyprland:_ZN6Events19listener_mouseFrameEP11wl_listenerPv
Hyprland:_ZN6Events19listener_newVirtPtrEP11wl_listenerPv
Hyprland:_ZN6Events19listener_pinchBeginEP11wl_listenerPv
Hyprland:_ZN6Events19listener_swipeBeginEP11wl_listenerPv
Hyprland:_ZN6Events19listener_touchBeginEP11wl_listenerPv
Hyprland:_ZN6Events19listener_touchFrameEP11wl_listenerPv
Hyprland:_ZN6Events20listener_activateX11EPvS0_
Hyprland:_ZN6Events20listener_activateXDGEP11wl_listenerPv
Hyprland:_ZN6Events20listener_destroyDragEPvS0_
Hyprland:_ZN6Events20listener_keyboardKeyEPvS0_
Hyprland:_ZN6Events20listener_keyboardModEPvS0_
Hyprland:_ZN6Events20listener_mapDragIconEPvS0_
Hyprland:_ZN6Events20listener_mapPopupXDGEPvS0_
Hyprland:_ZN6Events20listener_monitorBindEPvS0_
Hyprland:_ZN6Events20listener_mouseButtonEP11wl_listenerPv
Hyprland:_ZN6Events20listener_newPopupXDGEPvS0_
Hyprland:_ZN6Events20listener_pinchUpdateEP11wl_listenerPv
Hyprland:_ZN6Events20listener_requestDragEP11wl_listenerPv
Hyprland:_ZN6Events20listener_requestMoveEPvS0_
Hyprland:_ZN6Events20listener_swipeUpdateEP11wl_listenerPv
Hyprland:_ZN6Events20listener_touchUpdateEP11wl_listenerPv
Hyprland:_ZN6Events20listener_unmapWindowEPvS0_
Hyprland:_ZN6Events21listener_ackConfigureEPvS0_
Hyprland:_ZN6Events21listener_associateX11EPvS0_
Hyprland:_ZN6Events21listener_commitWindowEPvS0_
Hyprland:_ZN6Events21listener_configureX11EPvS0_
Hyprland:_ZN6Events21listener_destroyMouseEPvS0_
Hyprland:_ZN6Events21listener_leaseRequestEP11wl_listenerPv
Hyprland:_ZN6Events21listener_monitorFrameEPvS0_
Hyprland:_ZN6Events21listener_newTextInputEP11wl_listenerPv
Hyprland:_ZN6Events21listener_requestMouseEP11wl_listenerPv
Hyprland:_ZN6Events22listener_destroyWindowEPvS0_
Hyprland:_ZN6Events22listener_dissociateX11EPvS0_
Hyprland:_ZN6Events22listener_mapInputPopupEPvS0_
Hyprland:_ZN6Events22listener_mapSubsurfaceEPvS0_
Hyprland:_ZN6Events22listener_monitorCommitEPvS0_
Hyprland:_ZN6Events22listener_monitorDamageEPvS0_
Hyprland:_ZN6Events22listener_newConstraintEP11wl_listenerPv
Hyprland:_ZN6Events22listener_outputMgrTestEP11wl_listenerPv
Hyprland:_ZN6Events22listener_readyXWaylandEP11wl_listenerPv
Hyprland:_ZN6Events22listener_requestResizeEPvS0_
Hyprland:_ZN6Events22listener_requestSetSelEP11wl_listenerPv
Hyprland:_ZN6Events22listener_sessionActiveEP11wl_listenerPv
Hyprland:_ZN6Events22listener_unmapDragIconEPvS0_
Hyprland:_ZN6Events22listener_unmapPopupXDGEPvS0_
Hyprland:_ZN6Events23listener_commitDragIconEPvS0_
Hyprland:_ZN6Events23listener_commitPopupXDGEPvS0_
Hyprland:_ZN6Events23listener_monitorDestroyEPvS0_
Hyprland:_ZN6Events23listener_newSessionLockEP11wl_listenerPv
Hyprland:_ZN6Events23listener_newTearingHintEP11wl_listenerPv
Hyprland:_ZN6Events23listener_newXDGToplevelEP11wl_listenerPv
Hyprland:_ZN6Events23listener_outputMgrApplyEP11wl_listenerPv
Hyprland:_ZN6Events23listener_setCursorShapeEP11wl_listenerPv
Hyprland:_ZN6Events23listener_setTitleWindowEPvS0_
Hyprland:_ZN6Events24listener_RendererDestroyEP11wl_listenerPv
Hyprland:_ZN6Events24listener_destroyDragIconEPvS0_
Hyprland:_ZN6Events24listener_destroyPopupXDGEPvS0_
Hyprland:_ZN6Events24listener_keyboardDestroyEPvS0_
Hyprland:_ZN6Events24listener_mapLayerSurfaceEPvS0_
Hyprland:_ZN6Events24listener_newLayerSurfaceEP11wl_listenerPv
Hyprland:_ZN6Events24listener_powerMgrSetModeEP11wl_listenerPv
Hyprland:_ZN6Events24listener_requestMaximizeEPvS0_
Hyprland:_ZN6Events24listener_requestMinimizeEPvS0_
Hyprland:_ZN6Events24listener_surfaceXWaylandEP11wl_listenerPv
Hyprland:_ZN6Events24listener_unmapInputPopupEPvS0_
Hyprland:_ZN6Events24listener_unmapSubsurfaceEPvS0_
Hyprland:_ZN6Events25listener_commitConstraintEPvS0_
Hyprland:_ZN6Events25listener_commitInputPopupEPvS0_
Hyprland:_ZN6Events25listener_commitSubsurfaceEPvS0_
Hyprland:_ZN6Events25listener_fullscreenWindowEPvS0_
Hyprland:_ZN6Events25listener_newIdleInhibitorEP11wl_listenerPv
Hyprland:_ZN6Events26listener_destroyConstraintEPvS0_
Hyprland:_ZN6Events26listener_destroyInputPopupEPvS0_
Hyprland:_ZN6Events26listener_destroySubsurfaceEPvS0_
Hyprland:_ZN6Events26listener_monitorNeedsFrameEPvS0_
Hyprland:_ZN6Events26listener_mouseMoveAbsoluteEP11wl_listenerPv
Hyprland:_ZN6Events26listener_newSubsurfaceNodeEPvS0_
Hyprland:_ZN6Events26listener_unmapLayerSurfaceEPvS0_
Hyprland:_ZN6Events27listener_commitLayerSurfaceEPvS0_
Hyprland:_ZN6Events27listener_newVirtualKeyboardEP11wl_listenerPv
Hyprland:_ZN6Events27listener_repositionPopupXDGEPvS0_
Hyprland:_ZN6Events28listener_destroyLayerSurfaceEPvS0_
Hyprland:_ZN6Events28listener_monitorStateRequestEPvS0_
Hyprland:_ZN6Events28listener_setConstraintRegionEPvS0_
Hyprland:_ZN6Events28listener_setOverrideRedirectEPvS0_
Hyprland:_ZN6Events29listener_newPopupFromPopupXDGEPvS0_
Hyprland:_ZN6Events29listener_requestSetPrimarySelEP11wl_listenerPv
Hyprland:_ZN6Events29listener_unmanagedSetGeometryEPvS0_
Hyprland:_ZN6Events30listener_destroySubsurfaceNodeEPvS0_
Hyprland:_ZN7CRegion10getExtentsEv
Hyprland:_ZN7CRegion3addERK4CBox
Hyprland:_ZN7CRegion3addERKS_
Hyprland:_ZN7CRegion3addEdddd
Hyprland:_ZN7CRegion3setERKS_
Hyprland:_ZN7CRegion5clearEv
Hyprland:_ZN7CRegion5scaleEf
Hyprland:_ZN7CRegion6invertEP12pixman_box32
Hyprland:_ZN7CRegion6invertERK4CBox
Hyprland:_ZN7CRegion8subtractERKS_
Hyprland:_ZN7CRegion9intersectERKS_
Hyprland:_ZN7CRegion9intersectEdddd
Hyprland:_ZN7CRegion9transformE19wl_output_transformdd
Hyprland:_ZN7CRegion9translateERK8Vector2D
Hyprland:_ZN7CRegionC1EOS_
Hyprland:_ZN7CRegionC1EP12pixman_box32
Hyprland:_ZN7CRegionC1EP15pixman_region32
Hyprland:_ZN7CRegionC1EP7wlr_box
Hyprland:_ZN7CRegionC1ERK4CBox
Hyprland:_ZN7CRegionC1ERKS_
Hyprland:_ZN7CRegionC1Edddd
Hyprland:_ZN7CRegionC1Ev
Hyprland:_ZN7CRegionC2EOS_
Hyprland:_ZN7CRegionC2EP12pixman_box32
Hyprland:_ZN7CRegionC2EP15pixman_region32
Hyprland:_ZN7CRegionC2EP7wlr_box
Hyprland:_ZN7CRegionC2ERK4CBox
Hyprland:_ZN7CRegionC2ERKS_
Hyprland:_ZN7CRegionC2Edddd
Hyprland:_ZN7CRegionC2Ev
Hyprland:_ZN7CRegionD1Ev
Hyprland:_ZN7CRegionD2Ev
Hyprland:_ZN7CShader18getUniformLocationERKNSt7__cxx1112basic_stringIcSt11char_traitsIcESaIcEEE
Hyprland:_ZN7CShader7destroyEv
Hyprland:_ZN7CShaderD1Ev
Hyprland:_ZN7CShaderD2Ev
Hyprland:_ZN7CWindow10hasPopupAtERK8Vector2D
Hyprland:_ZN7CWindow11createGroupEv
Hyprland:_ZN7CWindow12destroyGroupEv
Hyprland:_ZN7CWindow12getGroupHeadEv
Hyprland:_ZN7CWindow12getGroupSizeEv
Hyprland:_ZN7CWindow12getGroupTailEv
Hyprland:_ZN7CWindow12setSuspendedEb
Hyprland:_ZN7CWindow13addWindowDecoESt10unique_ptrI21IHyprWindowDecorationSt14default_deleteIS1_EE
Hyprland:_ZN7CWindow14updateToplevelEv
Hyprland:_ZN7CWindow15X11TransientForEv
Hyprland:_ZN7CWindow15applyGroupRulesEv
Hyprland:_ZN7CWindow15getGroupCurrentEv
Hyprland:_ZN7CWindow15moveToWorkspaceEi
Hyprland:_ZN7CWindow15setGroupCurrentEPS_
Hyprland:_ZN7CWindow16applyDynamicRuleERK11SWindowRule
Hyprland:_ZN7CWindow16canBeGroupedIntoEPS_
Hyprland:_ZN7CWindow16getGroupPreviousEv
Hyprland:_ZN7CWindow16isInCurvedCornerEdd
Hyprland:_ZN7CWindow16removeWindowDecoEP21IHyprWindowDecoration
Hyprland:_ZN7CWindow17checkInputOnDecosE10eInputTypeRK8Vector2DSt3any
Hyprland:_ZN7CWindow17getRealBorderSizeEv
Hyprland:_ZN7CWindow17getWindowInputBoxEv
Hyprland:_ZN7CWindow17updateWindowDecosEv
Hyprland:_ZN7CWindow18uncacheWindowDecosEv
Hyprland:_ZN7CWindow18updateDynamicRulesEv
Hyprland:_ZN7CWindow18updateGroupOutputsEv
Hyprland:_ZN7CWindow19getDecorationByTypeE15eDecorationType
Hyprland:_ZN7CWindow19insertWindowToGroupEPS_
Hyprland:_ZN7CWindow20createToplevelHandleEv
Hyprland:_ZN7CWindow20getFullWindowExtentsEv
Hyprland:_ZN7CWindow20onBorderAngleAnimEndEPv
Hyprland:_ZN7CWindow20updateSurfaceOutputsEv
Hyprland:_ZN7CWindow21destroyToplevelHandleEv
Hyprland:_ZN7CWindow21getGroupWindowByIndexEi
Hyprland:_ZN7CWindow22removeDecorationByTypeE15eDecorationType
Hyprland:_ZN7CWindow23getWindowMainSurfaceBoxEv
Hyprland:_ZN7CWindow23switchWithWindowInGroupEPS_
Hyprland:_ZN7CWindow23updateSpecialRenderDataEv
Hyprland:_ZN7CWindow24getFullWindowBoundingBoxEv
Hyprland:_ZN7CWindow25getFullWindowReservedAreaEv
Hyprland:_ZN7CWindow25shouldSendFullscreenStateEv
Hyprland:_ZN7CWindow39getWindowIdealBoundingBoxIgnoreReservedEv
Hyprland:_ZN7CWindow5onMapEv
Hyprland:_ZN7CWindow6getPIDEv
Hyprland:_ZN7CWindow6middleEv
Hyprland:_ZN7CWindow6opaqueEv
Hyprland:_ZN7CWindow7onUnmapEv
Hyprland:_ZN7CWindow8isHiddenEv
Hyprland:_ZN7CWindow8roundingEv
Hyprland:_ZN7CWindow9canBeTornEv
Hyprland:_ZN7CWindow9setHiddenEb
Hyprland:_ZN7CWindowC1Ev
Hyprland:_ZN7CWindowC2Ev
Hyprland:_ZN7CWindowD1Ev
Hyprland:_ZN7CWindowD2Ev
Hyprland:_ZN7HyprCtl15makeDynamicCallERKNSt7__cxx1112basic_stringIcSt11char_traitsIcESaIcEEE
Hyprland:_ZN7HyprCtl18startHyprCtlSocketEv
Hyprland:_ZN8CMonitor12onDisconnectEb
Hyprland:_ZN8CMonitor12updateMatrixEv
Hyprland:_ZN8CMonitor14setupDefaultWSERK12SMonitorRule
Hyprland:_ZN8CMonitor15changeWorkspaceEP10CWorkspacebb
Hyprland:_ZN8CMonitor15changeWorkspaceERKib
Hyprland:_ZN8CMonitor15getDefaultScaleEv
Hyprland:_ZN8CMonitor19setSpecialWorkspaceEP10CWorkspace
Hyprland:_ZN8CMonitor19setSpecialWorkspaceERKi
Hyprland:_ZN8CMonitor22findAvailableDefaultWSEv
Hyprland:_ZN8CMonitor6middleEv
Hyprland:_ZN8CMonitor6moveToERK8Vector2D
Hyprland:_ZN8CMonitor8isMirrorEv
Hyprland:_ZN8CMonitor9addDamageEPK15pixman_region32
Hyprland:_ZN8CMonitor9addDamageEPK4CBox
Hyprland:_ZN8CMonitor9addDamageEPK7CRegion
Hyprland:_ZN8CMonitor9onConnectEb
Hyprland:_ZN8CMonitor9setMirrorERKNSt7__cxx1112basic_stringIcSt11char_traitsIcESaIcEEE
Hyprland:_ZN8CMonitorC1Ev
Hyprland:_ZN8CMonitorC2Ev
Hyprland:_ZN8CMonitorD1Ev
Hyprland:_ZN8CMonitorD2Ev
Hyprland:_ZN8CTexture14destroyTextureEv
Hyprland:_ZN8CTexture8allocateEv
Hyprland:_ZN8CTextureC1EP11wlr_texture
Hyprland:_ZN8CTextureC1Ev
Hyprland:_ZN8CTextureC2EP11wlr_texture
Hyprland:_ZN8CTextureC2Ev
Hyprland:_ZN8CVarListC1ERKNSt7__cxx1112basic_stringIcSt11char_traitsIcESaIcEEEmcb
Hyprland:_ZN8CVarListC2ERKNSt7__cxx1112basic_stringIcSt11char_traitsIcESaIcEEEmcb
Hyprland:_ZN8Vector2D9normalizeEv
Hyprland:_ZN8Vector2DC1Edd
Hyprland:_ZN8Vector2DC1Ev
Hyprland:_ZN8Vector2DC2Edd
Hyprland:_ZN8Vector2DC2Ev
Hyprland:_ZN8Vector2DD1Ev
Hyprland:_ZN8Vector2DD2Ev
Hyprland:_ZN9CTitleTexC1EP7CWindowRK8Vector2D
Hyprland:_ZN9CTitleTexC2EP7CWindowRK8Vector2D
Hyprland:_ZN9CTitleTexD1Ev
Hyprland:_ZN9CTitleTexD2Ev
Hyprland:_ZN9CWatchdog11endWatchingEv
Hyprland:_ZN9CWatchdog13startWatchingEv
Hyprland:_ZN9CWatchdogC1Ev
Hyprland:_ZN9CWatchdogC2Ev
Hyprland:_ZN9CWatchdogD1Ev
Hyprland:_ZN9CWatchdogD2Ev
Hyprland:_ZNK10CWLSurface15correctSmallVecEv
Hyprland:_ZNK10CWLSurface26getViewporterCorrectedSizeEv
Hyprland:_ZNK10CWLSurface3wlrEv
Hyprland:_ZNK10CWLSurface5smallEv
Hyprland:_ZNK10CWLSurface6existsEv
Hyprland:_ZNK4CBox13containsPointERK8Vector2D
Hyprland:_ZNK4CBox3posEv
Hyprland:_ZNK4CBox4copyEv
Hyprland:_ZNK4CBox4sizeEv
Hyprland:_ZNK4CBox5emptyEv
Hyprland:_ZNK4CBox6middleEv
Hyprland:_ZNK6CTimer6chronoEv
Hyprland:_ZNK7CRegion12closestPointERK8Vector2D
Hyprland:_ZNK7CRegion13containsPointERK8Vector2D
Hyprland:_ZNK7CRegion4copyEv
Hyprland:_ZNK7CRegion5emptyEv
Hyprland:_ZNK7CRegion8getRectsEv
Hyprland:_ZNK8CVarList4joinERKNSt7__cxx1112basic_stringIcSt11char_traitsIcESaIcEEEmm
Hyprland:_ZNK8Vector2D10inTriangleERKS_S1_S1_
Hyprland:_ZNK8Vector2D4sizeEv
Hyprland:_ZNK8Vector2D5clampERKS_S1_
Hyprland:_ZNK8Vector2D5floorEv
Hyprland:_ZNK8Vector2D5roundEv
Hyprland:_ZNK8Vector2D8distanceERKS_
Hyprland:__bss_start
Hyprland:__data_start
Hyprland:__hyprland_api_get_hash
Hyprland:_edata
Hyprland:_end
Hyprland:_start
Hyprland:_wlr_log
Hyprland:_wlr_vlog
Hyprland:addConfigKeyword
Hyprland:addConfigValue
Hyprland:addDispatcher
Hyprland:addLayout
Hyprland:addNotification
Hyprland:addNotificationV2
Hyprland:addWindowDecoration
Hyprland:add_tablet_client
Hyprland:add_tablet_pad_client
Hyprland:add_tablet_tool_client
Hyprland:allocate_shm_file
Hyprland:allocate_shm_file_pair
Hyprland:allocator_autocreate_with_drm_fd
Hyprland:atomic_iface
Hyprland:backend_get_buffer_caps
Hyprland:begin_gles2_buffer_pass
Hyprland:begin_pixman_data_ptr_access
Hyprland:begin_pixman_render_pass
Hyprland:buffer_is_opaque
Hyprland:calculate_refresh_rate
Hyprland:check_drm_features
Hyprland:client_data_source_create
Hyprland:client_data_source_from_resource
Hyprland:configmtx
Hyprland:convert_drm_format_to_wl_shm
Hyprland:convert_wl_shm_format_to_drm
Hyprland:createFunctionHook
Hyprland:create_fb_damage_clips_blob
Hyprland:create_gamma_lut_blob
Hyprland:create_mode_blob
Hyprland:create_pointer
Hyprland:create_wl_seat
Hyprland:create_xdg_popup
Hyprland:create_xdg_positioner
Hyprland:create_xdg_surface
Hyprland:create_xdg_toplevel
Hyprland:data_offer_create
Hyprland:data_offer_destroy
Hyprland:data_offer_update_action
Hyprland:data_source_is_xwayland
Hyprland:default_keyboard_grab_impl
Hyprland:default_pointer_grab_impl
Hyprland:default_touch_grab_impl
Hyprland:destroy_drm_connector
Hyprland:destroy_libinput_input_device
Hyprland:destroy_tablet_pad_v2
Hyprland:destroy_tablet_tool_v2
Hyprland:destroy_tablet_v2
Hyprland:destroy_wl_buffer
Hyprland:destroy_wl_seat
Hyprland:destroy_xdg_popup
Hyprland:destroy_xdg_surface
Hyprland:destroy_xdg_toplevel
Hyprland:device_from_keyboard
Hyprland:device_from_pointer
Hyprland:device_from_switch
Hyprland:device_from_tablet
Hyprland:device_from_tablet_pad
Hyprland:device_from_touch
Hyprland:dmabuf_buffer_create
Hyprland:dmabuf_buffer_drop
Hyprland:drag_icon_surface_role
Hyprland:drm_backend_monitor_create
Hyprland:drm_connector_commit_state
Hyprland:drm_connector_is_cursor_visible
Hyprland:drm_connector_status_str
Hyprland:drm_connector_supports_vrr
Hyprland:drm_crtc_get_gamma_lut_size
Hyprland:drm_fb_clear
Hyprland:drm_fb_destroy
Hyprland:drm_fb_import
Hyprland:drm_fb_lock
Hyprland:drm_fb_move
Hyprland:drm_get_pixel_format_info
Hyprland:drm_lease_destroy
Hyprland:drm_legacy_crtc_set_gamma
Hyprland:drm_page_flip_destroy
Hyprland:drm_plane_pick_render_format
Hyprland:drm_surface_blit
Hyprland:env_parse_bool
Hyprland:env_parse_switch
Hyprland:findFunctionsByName
Hyprland:finish_device_tablet
Hyprland:finish_device_tablet_pad
Hyprland:finish_drm_renderer
Hyprland:finish_drm_resources
Hyprland:finish_drm_surface
Hyprland:finish_seat_pointer
Hyprland:finish_seat_tablet
Hyprland:formats
Hyprland:generate_cvt_mode
Hyprland:generate_token
Hyprland:getConfigValue
Hyprland:getFunctionAddressFromSignature
Hyprland:getHyprlandVersion
Hyprland:get_current_time_msec
Hyprland:get_drm_backend_from_backend
Hyprland:get_drm_connector_props
Hyprland:get_drm_crtc_props
Hyprland:get_drm_format_from_pixman
Hyprland:get_drm_layer
Hyprland:get_drm_plane_props
Hyprland:get_drm_prop
Hyprland:get_drm_prop_blob
Hyprland:get_drm_prop_enum
Hyprland:get_gles2_format_from_drm
Hyprland:get_gles2_format_from_gl
Hyprland:get_gles2_shm_formats
Hyprland:get_next_cursor_fb
Hyprland:get_or_create_tablet_seat
Hyprland:get_picture_aspect_ratio
Hyprland:get_pixman_drm_formats
Hyprland:get_pixman_format_from_drm
Hyprland:get_pnp_manufacturer
Hyprland:get_wl_backend_from_backend
Hyprland:get_wl_output_from_surface
Hyprland:get_x11_backend_from_backend
Hyprland:get_x11_output_from_window_id
Hyprland:gles2_buffer_get_fbo
Hyprland:gles2_buffer_get_or_create
Hyprland:gles2_get_render_timer
Hyprland:gles2_get_renderer
Hyprland:gles2_get_texture
Hyprland:gles2_texture_destroy
Hyprland:gles2_texture_from_buffer
Hyprland:handle_drm_event
Hyprland:handle_keyboard_key
Hyprland:handle_libinput_event
Hyprland:handle_pointer_axis
Hyprland:handle_pointer_axis_value120
Hyprland:handle_pointer_button
Hyprland:handle_pointer_hold_begin
Hyprland:handle_pointer_hold_end
Hyprland:handle_pointer_motion
Hyprland:handle_pointer_motion_abs
Hyprland:handle_pointer_pinch_begin
Hyprland:handle_pointer_pinch_end
Hyprland:handle_pointer_pinch_update
Hyprland:handle_pointer_swipe_begin
Hyprland:handle_pointer_swipe_end
Hyprland:handle_pointer_swipe_update
Hyprland:handle_switch_toggle
Hyprland:handle_tablet_pad_button
Hyprland:handle_tablet_pad_ring
Hyprland:handle_tablet_pad_strip
Hyprland:handle_tablet_tool_axis
Hyprland:handle_tablet_tool_button
Hyprland:handle_tablet_tool_proximity
Hyprland:handle_tablet_tool_tip
Hyprland:handle_touch_cancel
Hyprland:handle_touch_down
Hyprland:handle_touch_frame
Hyprland:handle_touch_motion
Hyprland:handle_touch_up
Hyprland:handle_x11_configure_notify
Hyprland:handle_x11_present_event
Hyprland:handle_x11_xinput_event
Hyprland:handle_xdg_popup_ack_configure
Hyprland:handle_xdg_popup_committed
Hyprland:handle_xdg_toplevel_ack_configure
Hyprland:handle_xdg_toplevel_committed
Hyprland:headless_backend_from_backend
Hyprland:init_device_keyboard
Hyprland:init_device_pointer
Hyprland:init_device_switch
Hyprland:init_device_tablet
Hyprland:init_device_tablet_pad
Hyprland:init_device_touch
Hyprland:init_drm_renderer
Hyprland:init_drm_resources
Hyprland:init_drm_surface
Hyprland:init_seat_keyboard
Hyprland:init_seat_pointer
Hyprland:init_seat_tablet
Hyprland:init_seat_touch
Hyprland:introspect_drm_prop_range
Hyprland:invokeHyprctlCommand
Hyprland:is_gles2_pixel_format_supported
Hyprland:is_utf8
Hyprland:keyboard_key_update
Hyprland:keyboard_led_update
Hyprland:keyboard_modifier_update
Hyprland:layer_impl
Hyprland:legacy_iface
Hyprland:libinput_keyboard_impl
Hyprland:libinput_pointer_impl
Hyprland:libinput_switch_impl
Hyprland:libinput_tablet_impl
Hyprland:libinput_tablet_pad_impl
Hyprland:libinput_touch_impl
Hyprland:liftoff_iface
Hyprland:main
Hyprland:match_obj
Hyprland:matrix_projection
Hyprland:open_display_sockets
Hyprland:output_cursor_set_texture
Hyprland:output_defer_present
Hyprland:output_ensure_buffer
Hyprland:output_pending_enabled
Hyprland:output_pending_resolution
Hyprland:output_pick_format
Hyprland:parse_edid
Hyprland:pixel_format_info_check_stride
Hyprland:pixel_format_info_min_stride
Hyprland:pixel_format_info_pixels_per_block
Hyprland:pop_gles2_debug
Hyprland:primary_selection_source_is_xwayland
Hyprland:push_gles2_debug_
Hyprland:readonly_data_buffer_create
Hyprland:readonly_data_buffer_drop
Hyprland:region_create
Hyprland:registerCallbackDynamic
Hyprland:registerCallbackStatic
Hyprland:reloadConfig
Hyprland:removeDispatcher
Hyprland:removeFunctionHook
Hyprland:removeLayout
Hyprland:removeWindowDecoration
Hyprland:renderer_autocreate_with_drm_fd
Hyprland:renderer_bind_buffer
Hyprland:renderer_get_render_buffer_caps
Hyprland:reset_xdg_popup
Hyprland:reset_xdg_toplevel
Hyprland:scan_drm_connectors
Hyprland:scan_drm_leases
Hyprland:seat_client_create_inert_keyboard
Hyprland:seat_client_create_inert_pointer
Hyprland:seat_client_create_inert_touch
Hyprland:seat_client_create_keyboard
Hyprland:seat_client_create_pointer
Hyprland:seat_client_create_touch
Hyprland:seat_client_destroy_keyboard
Hyprland:seat_client_destroy_pointer
Hyprland:seat_client_destroy_touch
Hyprland:seat_client_from_data_device_resource
Hyprland:seat_client_send_keyboard_leave_raw
Hyprland:seat_client_send_pointer_leave_raw
Hyprland:seat_client_send_selection
Hyprland:send_xdg_popup_configure
Hyprland:send_xdg_toplevel_configure
Hyprland:session_open_if_kms
Hyprland:set_add
Hyprland:set_cloexec
Hyprland:set_remove
Hyprland:set_xdg_surface_role
Hyprland:set_xdg_surface_role_object
Hyprland:slowUpdate
Hyprland:subsurface_consider_map
Hyprland:subsurface_handle_parent_commit
Hyprland:subsurface_role
Hyprland:tablet_client_from_resource
Hyprland:tablet_pad_client_from_resource
Hyprland:tablet_seat_client_from_resource
Hyprland:tablet_seat_client_v2_destroy
Hyprland:tablet_tool_client_from_resource
Hyprland:timespec_from_nsec
Hyprland:timespec_sub
Hyprland:timespec_to_msec
Hyprland:timespec_to_nsec
Hyprland:ud_asmprintf
Hyprland:ud_clear_insn
Hyprland:ud_decode
Hyprland:ud_decode_prefixes
Hyprland:ud_disassemble
Hyprland:ud_flag_tab
Hyprland:ud_get_user_opaque_data
Hyprland:ud_init
Hyprland:ud_input_end
Hyprland:ud_input_skip
Hyprland:ud_insn_asm
Hyprland:ud_insn_hex
Hyprland:ud_insn_len
Hyprland:ud_insn_mnemonic
Hyprland:ud_insn_off
Hyprland:ud_insn_opr
Hyprland:ud_insn_ptr
Hyprland:ud_itab
Hyprland:ud_itab__0
Hyprland:ud_lookup_eflags
Hyprland:ud_lookup_implicit_reg_defined_list
Hyprland:ud_lookup_implicit_reg_used_list
Hyprland:ud_lookup_mnemonic
Hyprland:ud_lookup_table_list
Hyprland:ud_mnemonics_str
Hyprland:ud_opr_is_gpr
Hyprland:ud_opr_is_sreg
Hyprland:ud_reg_tab
Hyprland:ud_set_asm_buffer
Hyprland:ud_set_input_buffer
Hyprland:ud_set_input_file
Hyprland:ud_set_input_hook
Hyprland:ud_set_mode
Hyprland:ud_set_pc
Hyprland:ud_set_sym_resolver
Hyprland:ud_set_syntax
Hyprland:ud_set_user_opaque_data
Hyprland:ud_set_vendor
Hyprland:ud_syn_print_addr
Hyprland:ud_syn_print_imm
Hyprland:ud_syn_print_mem_disp
Hyprland:ud_syn_rel_target
Hyprland:ud_translate_att
Hyprland:ud_type_to_value
Hyprland:unlink_display_sockets
Hyprland:unregisterCallback
Hyprland:update_wl_output_cursor
Hyprland:update_x11_pointer_position
Hyprland:usec_to_msec
Hyprland:wl_pointer_impl
Hyprland:wl_tablet_impl
Hyprland:wl_tablet_pad_impl
Hyprland:wlr_addon_find
Hyprland:wlr_addon_finish
Hyprland:wlr_addon_init
Hyprland:wlr_addon_set_finish
Hyprland:wlr_addon_set_init
Hyprland:wlr_allocator_autocreate
Hyprland:wlr_allocator_create_buffer
Hyprland:wlr_allocator_destroy
Hyprland:wlr_allocator_init
Hyprland:wlr_backend_autocreate
Hyprland:wlr_backend_destroy
Hyprland:wlr_backend_finish
Hyprland:wlr_backend_get_drm_fd
Hyprland:wlr_backend_init
Hyprland:wlr_backend_is_drm
Hyprland:wlr_backend_is_headless
Hyprland:wlr_backend_is_libinput
Hyprland:wlr_backend_is_multi
Hyprland:wlr_backend_is_wl
Hyprland:wlr_backend_is_x11
Hyprland:wlr_backend_start
Hyprland:wlr_box_closest_point
Hyprland:wlr_box_contains_point
Hyprland:wlr_box_empty
Hyprland:wlr_box_equal
Hyprland:wlr_box_intersection
Hyprland:wlr_box_transform
Hyprland:wlr_buffer_begin_data_ptr_access
Hyprland:wlr_buffer_drop
Hyprland:wlr_buffer_end_data_ptr_access
Hyprland:wlr_buffer_get_dmabuf
Hyprland:wlr_buffer_get_shm
Hyprland:wlr_buffer_init
Hyprland:wlr_buffer_lock
Hyprland:wlr_buffer_register_resource_interface
Hyprland:wlr_buffer_try_from_resource
Hyprland:wlr_buffer_unlock
Hyprland:wlr_client_buffer_apply_damage
Hyprland:wlr_client_buffer_create
Hyprland:wlr_client_buffer_get
Hyprland:wlr_compositor_create
Hyprland:wlr_cursor_absolute_to_layout_coords
Hyprland:wlr_cursor_attach_input_device
Hyprland:wlr_cursor_attach_output_layout
Hyprland:wlr_cursor_create
Hyprland:wlr_cursor_destroy
Hyprland:wlr_cursor_detach_input_device
Hyprland:wlr_cursor_map_input_to_output
Hyprland:wlr_cursor_map_input_to_region
Hyprland:wlr_cursor_map_to_output
Hyprland:wlr_cursor_map_to_region
Hyprland:wlr_cursor_move
Hyprland:wlr_cursor_set_buffer
Hyprland:wlr_cursor_set_surface
Hyprland:wlr_cursor_set_xcursor
Hyprland:wlr_cursor_shape_manager_v1_create
Hyprland:wlr_cursor_shape_v1_name
Hyprland:wlr_cursor_unset_image
Hyprland:wlr_cursor_warp
Hyprland:wlr_cursor_warp_absolute
Hyprland:wlr_cursor_warp_closest
Hyprland:wlr_damage_ring_add
Hyprland:wlr_damage_ring_add_box
Hyprland:wlr_damage_ring_add_whole
Hyprland:wlr_damage_ring_finish
Hyprland:wlr_damage_ring_get_buffer_damage
Hyprland:wlr_damage_ring_init
Hyprland:wlr_damage_ring_rotate
Hyprland:wlr_damage_ring_rotate_buffer
Hyprland:wlr_damage_ring_set_bounds
Hyprland:wlr_data_control_device_v1_destroy
Hyprland:wlr_data_control_manager_v1_create
Hyprland:wlr_data_device_manager_create
Hyprland:wlr_data_source_accept
Hyprland:wlr_data_source_destroy
Hyprland:wlr_data_source_dnd_action
Hyprland:wlr_data_source_dnd_drop
Hyprland:wlr_data_source_dnd_finish
Hyprland:wlr_data_source_init
Hyprland:wlr_data_source_send
Hyprland:wlr_dmabuf_attributes_copy
Hyprland:wlr_dmabuf_attributes_finish
Hyprland:wlr_dmabuf_v1_buffer_try_from_buffer_resource
Hyprland:wlr_drag_create
Hyprland:wlr_drm_backend_create
Hyprland:wlr_drm_backend_get_non_master_fd
Hyprland:wlr_drm_buffer_try_from_resource
Hyprland:wlr_drm_connector_add_mode
Hyprland:wlr_drm_connector_get_id
Hyprland:wlr_drm_connector_get_panel_orientation
Hyprland:wlr_drm_create
Hyprland:wlr_drm_create_lease
Hyprland:wlr_drm_dumb_allocator_create
Hyprland:wlr_drm_format_add
Hyprland:wlr_drm_format_copy
Hyprland:wlr_drm_format_finish
Hyprland:wlr_drm_format_has
Hyprland:wlr_drm_format_init
Hyprland:wlr_drm_format_intersect
Hyprland:wlr_drm_format_set_add
Hyprland:wlr_drm_format_set_copy
Hyprland:wlr_drm_format_set_finish
Hyprland:wlr_drm_format_set_get
Hyprland:wlr_drm_format_set_has
Hyprland:wlr_drm_format_set_intersect
Hyprland:wlr_drm_format_set_union
Hyprland:wlr_drm_lease_request_v1_grant
Hyprland:wlr_drm_lease_request_v1_reject
Hyprland:wlr_drm_lease_terminate
Hyprland:wlr_drm_lease_v1_manager_create
Hyprland:wlr_drm_lease_v1_manager_offer_output
Hyprland:wlr_drm_lease_v1_manager_withdraw_output
Hyprland:wlr_drm_lease_v1_revoke
Hyprland:wlr_drm_mode_get_info
Hyprland:wlr_egl_create_image_from_dmabuf
Hyprland:wlr_egl_create_with_context
Hyprland:wlr_egl_create_with_drm_fd
Hyprland:wlr_egl_destroy
Hyprland:wlr_egl_destroy_image
Hyprland:wlr_egl_dup_drm_fd
Hyprland:wlr_egl_get_context
Hyprland:wlr_egl_get_display
Hyprland:wlr_egl_get_dmabuf_render_formats
Hyprland:wlr_egl_get_dmabuf_texture_formats
Hyprland:wlr_egl_is_current
Hyprland:wlr_egl_make_current
Hyprland:wlr_egl_restore_context
Hyprland:wlr_egl_save_context
Hyprland:wlr_egl_unset_current
Hyprland:wlr_export_dmabuf_manager_v1_create
Hyprland:wlr_fbox_empty
Hyprland:wlr_fbox_equal
Hyprland:wlr_fbox_transform
Hyprland:wlr_foreign_toplevel_handle_v1_create
Hyprland:wlr_foreign_toplevel_handle_v1_destroy
Hyprland:wlr_foreign_toplevel_handle_v1_output_enter
Hyprland:wlr_foreign_toplevel_handle_v1_output_leave
Hyprland:wlr_foreign_toplevel_handle_v1_set_activated
Hyprland:wlr_foreign_toplevel_handle_v1_set_app_id
Hyprland:wlr_foreign_toplevel_handle_v1_set_fullscreen
Hyprland:wlr_foreign_toplevel_handle_v1_set_maximized
Hyprland:wlr_foreign_toplevel_handle_v1_set_minimized
Hyprland:wlr_foreign_toplevel_handle_v1_set_parent
Hyprland:wlr_foreign_toplevel_handle_v1_set_title
Hyprland:wlr_foreign_toplevel_manager_v1_create
Hyprland:wlr_gamma_control_manager_v1_create
Hyprland:wlr_gamma_control_manager_v1_get_control
Hyprland:wlr_gamma_control_v1_apply
Hyprland:wlr_gamma_control_v1_send_failed_and_destroy
Hyprland:wlr_gbm_allocator_create
Hyprland:wlr_gles2_renderer_check_ext
Hyprland:wlr_gles2_renderer_create
Hyprland:wlr_gles2_renderer_create_with_drm_fd
Hyprland:wlr_gles2_renderer_get_current_fbo
Hyprland:wlr_gles2_renderer_get_egl
Hyprland:wlr_gles2_texture_get_attribs
Hyprland:wlr_global_destroy_safe
Hyprland:wlr_headless_add_output
Hyprland:wlr_headless_backend_create
Hyprland:wlr_idle_inhibit_v1_create
Hyprland:wlr_idle_notifier_v1_create
Hyprland:wlr_idle_notifier_v1_notify_activity
Hyprland:wlr_idle_notifier_v1_set_inhibited
Hyprland:wlr_input_device_finish
Hyprland:wlr_input_device_get_virtual_keyboard
Hyprland:wlr_input_device_init
Hyprland:wlr_input_device_is_libinput
Hyprland:wlr_input_device_is_wl
Hyprland:wlr_input_device_is_x11
Hyprland:wlr_input_method_keyboard_grab_v2_destroy
Hyprland:wlr_input_method_keyboard_grab_v2_send_key
Hyprland:wlr_input_method_keyboard_grab_v2_send_modifiers
Hyprland:wlr_input_method_keyboard_grab_v2_set_keyboard
Hyprland:wlr_input_method_manager_v2_create
Hyprland:wlr_input_method_v2_send_activate
Hyprland:wlr_input_method_v2_send_content_type
Hyprland:wlr_input_method_v2_send_deactivate
Hyprland:wlr_input_method_v2_send_done
Hyprland:wlr_input_method_v2_send_surrounding_text
Hyprland:wlr_input_method_v2_send_text_change_cause
Hyprland:wlr_input_method_v2_send_unavailable
Hyprland:wlr_input_popup_surface_v2_send_text_input_rectangle
Hyprland:wlr_input_popup_surface_v2_try_from_wlr_surface
Hyprland:wlr_keyboard_finish
Hyprland:wlr_keyboard_from_input_device
Hyprland:wlr_keyboard_get_modifiers
Hyprland:wlr_keyboard_init
Hyprland:wlr_keyboard_keymaps_match
Hyprland:wlr_keyboard_led_update
Hyprland:wlr_keyboard_notify_key
Hyprland:wlr_keyboard_notify_modifiers
Hyprland:wlr_keyboard_set_keymap
Hyprland:wlr_keyboard_set_repeat_info
Hyprland:wlr_keyboard_shortcuts_inhibit_v1_create
Hyprland:wlr_keyboard_shortcuts_inhibitor_v1_activate
Hyprland:wlr_keyboard_shortcuts_inhibitor_v1_deactivate
Hyprland:wlr_layer_shell_v1_create
Hyprland:wlr_layer_surface_v1_configure
Hyprland:wlr_layer_surface_v1_destroy
Hyprland:wlr_layer_surface_v1_for_each_popup_surface
Hyprland:wlr_layer_surface_v1_for_each_surface
Hyprland:wlr_layer_surface_v1_from_resource
Hyprland:wlr_layer_surface_v1_popup_surface_at
Hyprland:wlr_layer_surface_v1_surface_at
Hyprland:wlr_layer_surface_v1_try_from_wlr_surface
Hyprland:wlr_libinput_backend_create
Hyprland:wlr_libinput_get_device_handle
Hyprland:wlr_linux_dmabuf_feedback_add_tranche
Hyprland:wlr_linux_dmabuf_feedback_v1_finish
Hyprland:wlr_linux_dmabuf_feedback_v1_init_with_options
Hyprland:wlr_linux_dmabuf_v1_create
Hyprland:wlr_linux_dmabuf_v1_create_with_renderer
Hyprland:wlr_linux_dmabuf_v1_set_surface_feedback
Hyprland:wlr_log_get_verbosity
Hyprland:wlr_log_init
Hyprland:wlr_matrix_identity
Hyprland:wlr_matrix_multiply
Hyprland:wlr_matrix_project_box
Hyprland:wlr_matrix_rotate
Hyprland:wlr_matrix_scale
Hyprland:wlr_matrix_transform
Hyprland:wlr_matrix_translate
Hyprland:wlr_matrix_transpose
Hyprland:wlr_multi_backend_add
Hyprland:wlr_multi_backend_create
Hyprland:wlr_multi_backend_remove
Hyprland:wlr_multi_for_each_backend
Hyprland:wlr_multi_is_empty
Hyprland:wlr_output_add_software_cursors_to_render_pass
Hyprland:wlr_output_attach_buffer
Hyprland:wlr_output_begin_render_pass
Hyprland:wlr_output_commit
Hyprland:wlr_output_commit_state
Hyprland:wlr_output_configuration_head_v1_create
Hyprland:wlr_output_configuration_v1_create
Hyprland:wlr_output_configuration_v1_destroy
Hyprland:wlr_output_configuration_v1_send_failed
Hyprland:wlr_output_configuration_v1_send_succeeded
Hyprland:wlr_output_configure_primary_swapchain
Hyprland:wlr_output_create_global
Hyprland:wlr_output_cursor_create
Hyprland:wlr_output_cursor_destroy
Hyprland:wlr_output_cursor_move
Hyprland:wlr_output_cursor_set_buffer
Hyprland:wlr_output_destroy
Hyprland:wlr_output_destroy_global
Hyprland:wlr_output_effective_resolution
Hyprland:wlr_output_enable
Hyprland:wlr_output_enable_adaptive_sync
Hyprland:wlr_output_from_resource
Hyprland:wlr_output_get_gamma_size
Hyprland:wlr_output_get_primary_formats
Hyprland:wlr_output_head_v1_state_apply
Hyprland:wlr_output_init
Hyprland:wlr_output_init_render
Hyprland:wlr_output_is_direct_scanout_allowed
Hyprland:wlr_output_is_drm
Hyprland:wlr_output_is_headless
Hyprland:wlr_output_is_wl
Hyprland:wlr_output_is_x11
Hyprland:wlr_output_layer_create
Hyprland:wlr_output_layer_destroy
Hyprland:wlr_output_layout_add
Hyprland:wlr_output_layout_add_auto
Hyprland:wlr_output_layout_adjacent_output
Hyprland:wlr_output_layout_closest_point
Hyprland:wlr_output_layout_contains_point
Hyprland:wlr_output_layout_create
Hyprland:wlr_output_layout_destroy
Hyprland:wlr_output_layout_farthest_output
Hyprland:wlr_output_layout_get
Hyprland:wlr_output_layout_get_box
Hyprland:wlr_output_layout_get_center_output
Hyprland:wlr_output_layout_intersects
Hyprland:wlr_output_layout_output_at
Hyprland:wlr_output_layout_output_coords
Hyprland:wlr_output_layout_remove
Hyprland:wlr_output_lock_attach_render
Hyprland:wlr_output_lock_software_cursors
Hyprland:wlr_output_manager_v1_create
Hyprland:wlr_output_manager_v1_set_configuration
Hyprland:wlr_output_power_manager_v1_create
Hyprland:wlr_output_preferred_mode
Hyprland:wlr_output_preferred_read_format
Hyprland:wlr_output_rollback
Hyprland:wlr_output_schedule_done
Hyprland:wlr_output_schedule_frame
Hyprland:wlr_output_send_frame
Hyprland:wlr_output_send_present
Hyprland:wlr_output_send_request_state
Hyprland:wlr_output_set_custom_mode
Hyprland:wlr_output_set_damage
Hyprland:wlr_output_set_description
Hyprland:wlr_output_set_gamma
Hyprland:wlr_output_set_layers
Hyprland:wlr_output_set_mode
Hyprland:wlr_output_set_name
Hyprland:wlr_output_set_render_format
Hyprland:wlr_output_set_scale
Hyprland:wlr_output_set_subpixel
Hyprland:wlr_output_set_transform
Hyprland:wlr_output_state_copy
Hyprland:wlr_output_state_finish
Hyprland:wlr_output_state_init
Hyprland:wlr_output_state_set_adaptive_sync_enabled
Hyprland:wlr_output_state_set_buffer
Hyprland:wlr_output_state_set_custom_mode
Hyprland:wlr_output_state_set_damage
Hyprland:wlr_output_state_set_enabled
Hyprland:wlr_output_state_set_gamma_lut
Hyprland:wlr_output_state_set_layers
Hyprland:wlr_output_state_set_mode
Hyprland:wlr_output_state_set_render_format
Hyprland:wlr_output_state_set_scale
Hyprland:wlr_output_state_set_subpixel
Hyprland:wlr_output_state_set_transform
Hyprland:wlr_output_test
Hyprland:wlr_output_test_state
Hyprland:wlr_output_transform_compose
Hyprland:wlr_output_transform_coords
Hyprland:wlr_output_transform_invert
Hyprland:wlr_output_transformed_resolution
Hyprland:wlr_output_update_needs_frame
Hyprland:wlr_pixman_renderer_create
Hyprland:wlr_pixman_renderer_get_current_image
Hyprland:wlr_pixman_texture_get_image
Hyprland:wlr_pointer_constraint_v1_send_activated
Hyprland:wlr_pointer_constraint_v1_send_deactivated
Hyprland:wlr_pointer_constraints_v1_constraint_for_surface
Hyprland:wlr_pointer_constraints_v1_create
Hyprland:wlr_pointer_finish
Hyprland:wlr_pointer_from_input_device
Hyprland:wlr_pointer_gestures_v1_create
Hyprland:wlr_pointer_gestures_v1_send_hold_begin
Hyprland:wlr_pointer_gestures_v1_send_hold_end
Hyprland:wlr_pointer_gestures_v1_send_pinch_begin
Hyprland:wlr_pointer_gestures_v1_send_pinch_end
Hyprland:wlr_pointer_gestures_v1_send_pinch_update
Hyprland:wlr_pointer_gestures_v1_send_swipe_begin
Hyprland:wlr_pointer_gestures_v1_send_swipe_end
Hyprland:wlr_pointer_gestures_v1_send_swipe_update
Hyprland:wlr_pointer_init
Hyprland:wlr_presentation_create
Hyprland:wlr_presentation_event_from_output
Hyprland:wlr_presentation_feedback_destroy
Hyprland:wlr_presentation_feedback_send_presented
Hyprland:wlr_presentation_surface_sampled
Hyprland:wlr_presentation_surface_scanned_out_on_output
Hyprland:wlr_presentation_surface_textured_on_output
Hyprland:wlr_primary_selection_source_destroy
Hyprland:wlr_primary_selection_source_init
Hyprland:wlr_primary_selection_source_send
Hyprland:wlr_primary_selection_v1_device_manager_create
Hyprland:wlr_region_confine
Hyprland:wlr_region_expand
Hyprland:wlr_region_from_resource
Hyprland:wlr_region_rotated_bounds
Hyprland:wlr_region_scale
Hyprland:wlr_region_scale_xy
Hyprland:wlr_region_transform
Hyprland:wlr_relative_pointer_manager_v1_create
Hyprland:wlr_relative_pointer_manager_v1_send_relative_motion
Hyprland:wlr_relative_pointer_v1_from_resource
Hyprland:wlr_render_pass_add_rect
Hyprland:wlr_render_pass_add_texture
Hyprland:wlr_render_pass_init
Hyprland:wlr_render_pass_submit
Hyprland:wlr_render_rect_options_get_box
Hyprland:wlr_render_texture_options_get_alpha
Hyprland:wlr_render_texture_options_get_dst_box
Hyprland:wlr_render_texture_options_get_src_box
Hyprland:wlr_render_timer_create
Hyprland:wlr_render_timer_destroy
Hyprland:wlr_render_timer_get_duration_ns
Hyprland:wlr_render_timer_is_gles2
Hyprland:wlr_renderer_autocreate
Hyprland:wlr_renderer_begin_buffer_pass
Hyprland:wlr_renderer_begin_with_buffer
Hyprland:wlr_renderer_destroy
Hyprland:wlr_renderer_end
Hyprland:wlr_renderer_get_dmabuf_texture_formats
Hyprland:wlr_renderer_get_drm_fd
Hyprland:wlr_renderer_get_render_formats
Hyprland:wlr_renderer_get_shm_texture_formats
Hyprland:wlr_renderer_init
Hyprland:wlr_renderer_init_wl_display
Hyprland:wlr_renderer_init_wl_shm
Hyprland:wlr_renderer_is_gles2
Hyprland:wlr_renderer_is_pixman
Hyprland:wlr_renderer_read_pixels
Hyprland:wlr_seat_client_for_wl_client
Hyprland:wlr_seat_client_from_pointer_resource
Hyprland:wlr_seat_client_from_resource
Hyprland:wlr_seat_client_next_serial
Hyprland:wlr_seat_client_validate_event_serial
Hyprland:wlr_seat_create
Hyprland:wlr_seat_destroy
Hyprland:wlr_seat_get_keyboard
Hyprland:wlr_seat_keyboard_clear_focus
Hyprland:wlr_seat_keyboard_end_grab
Hyprland:wlr_seat_keyboard_enter
Hyprland:wlr_seat_keyboard_has_grab
Hyprland:wlr_seat_keyboard_notify_clear_focus
Hyprland:wlr_seat_keyboard_notify_enter
Hyprland:wlr_seat_keyboard_notify_key
Hyprland:wlr_seat_keyboard_notify_modifiers
Hyprland:wlr_seat_keyboard_send_key
Hyprland:wlr_seat_keyboard_send_modifiers
Hyprland:wlr_seat_keyboard_start_grab
Hyprland:wlr_seat_pointer_clear_focus
Hyprland:wlr_seat_pointer_end_grab
Hyprland:wlr_seat_pointer_enter
Hyprland:wlr_seat_pointer_has_grab
Hyprland:wlr_seat_pointer_notify_axis
Hyprland:wlr_seat_pointer_notify_button
Hyprland:wlr_seat_pointer_notify_clear_focus
Hyprland:wlr_seat_pointer_notify_enter
Hyprland:wlr_seat_pointer_notify_frame
Hyprland:wlr_seat_pointer_notify_motion
Hyprland:wlr_seat_pointer_send_axis
Hyprland:wlr_seat_pointer_send_button
Hyprland:wlr_seat_pointer_send_frame
Hyprland:wlr_seat_pointer_send_motion
Hyprland:wlr_seat_pointer_start_grab
Hyprland:wlr_seat_pointer_surface_has_focus
Hyprland:wlr_seat_pointer_warp
Hyprland:wlr_seat_request_set_primary_selection
Hyprland:wlr_seat_request_set_selection
Hyprland:wlr_seat_request_start_drag
Hyprland:wlr_seat_set_capabilities
Hyprland:wlr_seat_set_keyboard
Hyprland:wlr_seat_set_name
Hyprland:wlr_seat_set_primary_selection
Hyprland:wlr_seat_set_selection
Hyprland:wlr_seat_start_drag
Hyprland:wlr_seat_start_pointer_drag
Hyprland:wlr_seat_start_touch_drag
Hyprland:wlr_seat_touch_end_grab
Hyprland:wlr_seat_touch_get_point
Hyprland:wlr_seat_touch_has_grab
Hyprland:wlr_seat_touch_notify_cancel
Hyprland:wlr_seat_touch_notify_down
Hyprland:wlr_seat_touch_notify_frame
Hyprland:wlr_seat_touch_notify_motion
Hyprland:wlr_seat_touch_notify_up
Hyprland:wlr_seat_touch_num_points
Hyprland:wlr_seat_touch_point_clear_focus
Hyprland:wlr_seat_touch_point_focus
Hyprland:wlr_seat_touch_send_cancel
Hyprland:wlr_seat_touch_send_down
Hyprland:wlr_seat_touch_send_frame
Hyprland:wlr_seat_touch_send_motion
Hyprland:wlr_seat_touch_send_up
Hyprland:wlr_seat_touch_start_grab
Hyprland:wlr_seat_validate_pointer_grab_serial
Hyprland:wlr_seat_validate_touch_grab_serial
Hyprland:wlr_send_tablet_v2_tablet_pad_button
Hyprland:wlr_send_tablet_v2_tablet_pad_enter
Hyprland:wlr_send_tablet_v2_tablet_pad_leave
Hyprland:wlr_send_tablet_v2_tablet_pad_mode
Hyprland:wlr_send_tablet_v2_tablet_pad_ring
Hyprland:wlr_send_tablet_v2_tablet_pad_strip
Hyprland:wlr_send_tablet_v2_tablet_tool_button
Hyprland:wlr_send_tablet_v2_tablet_tool_distance
Hyprland:wlr_send_tablet_v2_tablet_tool_down
Hyprland:wlr_send_tablet_v2_tablet_tool_motion
Hyprland:wlr_send_tablet_v2_tablet_tool_pressure
Hyprland:wlr_send_tablet_v2_tablet_tool_proximity_in
Hyprland:wlr_send_tablet_v2_tablet_tool_proximity_out
Hyprland:wlr_send_tablet_v2_tablet_tool_rotation
Hyprland:wlr_send_tablet_v2_tablet_tool_slider
Hyprland:wlr_send_tablet_v2_tablet_tool_tilt
Hyprland:wlr_send_tablet_v2_tablet_tool_up
Hyprland:wlr_send_tablet_v2_tablet_tool_wheel
Hyprland:wlr_server_decoration_manager_create
Hyprland:wlr_server_decoration_manager_set_default_mode
Hyprland:wlr_session_change_vt
Hyprland:wlr_session_close_file
Hyprland:wlr_session_create
Hyprland:wlr_session_destroy
Hyprland:wlr_session_find_gpus
Hyprland:wlr_session_lock_manager_v1_create
Hyprland:wlr_session_lock_surface_v1_configure
Hyprland:wlr_session_lock_surface_v1_try_from_wlr_surface
Hyprland:wlr_session_lock_v1_destroy
Hyprland:wlr_session_lock_v1_send_locked
Hyprland:wlr_session_open_file
Hyprland:wlr_shm_allocator_create
Hyprland:wlr_shm_create
Hyprland:wlr_shm_create_with_renderer
Hyprland:wlr_single_pixel_buffer_manager_v1_create
Hyprland:wlr_subcompositor_create
Hyprland:wlr_subsurface_try_from_wlr_surface
Hyprland:wlr_surface_accepts_tablet_v2
Hyprland:wlr_surface_accepts_touch
Hyprland:wlr_surface_for_each_surface
Hyprland:wlr_surface_from_resource
Hyprland:wlr_surface_get_buffer_source_box
Hyprland:wlr_surface_get_effective_damage
Hyprland:wlr_surface_get_extends
Hyprland:wlr_surface_get_root_surface
Hyprland:wlr_surface_get_texture
Hyprland:wlr_surface_has_buffer
Hyprland:wlr_surface_lock_pending
Hyprland:wlr_surface_map
Hyprland:wlr_surface_point_accepts_input
Hyprland:wlr_surface_send_enter
Hyprland:wlr_surface_send_frame_done
Hyprland:wlr_surface_send_leave
Hyprland:wlr_surface_set_preferred_buffer_scale
Hyprland:wlr_surface_set_preferred_buffer_transform
Hyprland:wlr_surface_set_role
Hyprland:wlr_surface_set_role_object
Hyprland:wlr_surface_surface_at
Hyprland:wlr_surface_unlock_cached
Hyprland:wlr_surface_unmap
Hyprland:wlr_swapchain_acquire
Hyprland:wlr_swapchain_create
Hyprland:wlr_swapchain_destroy
Hyprland:wlr_swapchain_set_buffer_submitted
Hyprland:wlr_switch_finish
Hyprland:wlr_switch_from_input_device
Hyprland:wlr_switch_init
Hyprland:wlr_tablet_create
Hyprland:wlr_tablet_finish
Hyprland:wlr_tablet_from_input_device
Hyprland:wlr_tablet_init
Hyprland:wlr_tablet_pad_create
Hyprland:wlr_tablet_pad_finish
Hyprland:wlr_tablet_pad_from_input_device
Hyprland:wlr_tablet_pad_init
Hyprland:wlr_tablet_tool_create
Hyprland:wlr_tablet_tool_v2_end_grab
Hyprland:wlr_tablet_tool_v2_has_implicit_grab
Hyprland:wlr_tablet_tool_v2_start_grab
Hyprland:wlr_tablet_tool_v2_start_implicit_grab
Hyprland:wlr_tablet_v2_create
Hyprland:wlr_tablet_v2_end_grab
Hyprland:wlr_tablet_v2_start_grab
Hyprland:wlr_tablet_v2_tablet_pad_notify_button
Hyprland:wlr_tablet_v2_tablet_pad_notify_enter
Hyprland:wlr_tablet_v2_tablet_pad_notify_leave
Hyprland:wlr_tablet_v2_tablet_pad_notify_mode
Hyprland:wlr_tablet_v2_tablet_pad_notify_ring
Hyprland:wlr_tablet_v2_tablet_pad_notify_strip
Hyprland:wlr_tablet_v2_tablet_tool_notify_button
Hyprland:wlr_tablet_v2_tablet_tool_notify_distance
Hyprland:wlr_tablet_v2_tablet_tool_notify_down
Hyprland:wlr_tablet_v2_tablet_tool_notify_motion
Hyprland:wlr_tablet_v2_tablet_tool_notify_pressure
Hyprland:wlr_tablet_v2_tablet_tool_notify_proximity_in
Hyprland:wlr_tablet_v2_tablet_tool_notify_proximity_out
Hyprland:wlr_tablet_v2_tablet_tool_notify_rotation
Hyprland:wlr_tablet_v2_tablet_tool_notify_slider
Hyprland:wlr_tablet_v2_tablet_tool_notify_tilt
Hyprland:wlr_tablet_v2_tablet_tool_notify_up
Hyprland:wlr_tablet_v2_tablet_tool_notify_wheel
Hyprland:wlr_tearing_control_manager_v1_create
Hyprland:wlr_tearing_control_manager_v1_surface_hint_from_surface
Hyprland:wlr_text_input_manager_v3_create
Hyprland:wlr_text_input_v3_send_commit_string
Hyprland:wlr_text_input_v3_send_delete_surrounding_text
Hyprland:wlr_text_input_v3_send_done
Hyprland:wlr_text_input_v3_send_enter
Hyprland:wlr_text_input_v3_send_leave
Hyprland:wlr_text_input_v3_send_preedit_string
Hyprland:wlr_texture_destroy
Hyprland:wlr_texture_from_buffer
Hyprland:wlr_texture_from_dmabuf
Hyprland:wlr_texture_from_pixels
Hyprland:wlr_texture_init
Hyprland:wlr_texture_is_gles2
Hyprland:wlr_texture_is_pixman
Hyprland:wlr_texture_update_from_buffer
Hyprland:wlr_touch_finish
Hyprland:wlr_touch_from_input_device
Hyprland:wlr_touch_init
Hyprland:wlr_viewporter_create
Hyprland:wlr_virtual_keyboard_manager_v1_create
Hyprland:wlr_virtual_pointer_manager_v1_create
Hyprland:wlr_wl_backend_create
Hyprland:wlr_wl_backend_get_remote_display
Hyprland:wlr_wl_output_create
Hyprland:wlr_wl_output_create_from_surface
Hyprland:wlr_wl_output_get_surface
Hyprland:wlr_wl_output_set_title
Hyprland:wlr_x11_backend_create
Hyprland:wlr_x11_output_create
Hyprland:wlr_x11_output_set_title
Hyprland:wlr_xcursor_frame
Hyprland:wlr_xcursor_get_resize_name
Hyprland:wlr_xcursor_manager_create
Hyprland:wlr_xcursor_manager_destroy
Hyprland:wlr_xcursor_manager_get_xcursor
Hyprland:wlr_xcursor_manager_load
Hyprland:wlr_xcursor_theme_destroy
Hyprland:wlr_xcursor_theme_get_cursor
Hyprland:wlr_xcursor_theme_load
Hyprland:wlr_xdg_activation_token_v1_create
Hyprland:wlr_xdg_activation_token_v1_destroy
Hyprland:wlr_xdg_activation_token_v1_get_name
Hyprland:wlr_xdg_activation_v1_add_token
Hyprland:wlr_xdg_activation_v1_create
Hyprland:wlr_xdg_activation_v1_find_token
Hyprland:wlr_xdg_decoration_manager_v1_create
Hyprland:wlr_xdg_foreign_exported_finish
Hyprland:wlr_xdg_foreign_exported_init
Hyprland:wlr_xdg_foreign_registry_create
Hyprland:wlr_xdg_foreign_registry_find_by_handle
Hyprland:wlr_xdg_foreign_v1_create
Hyprland:wlr_xdg_foreign_v2_create
Hyprland:wlr_xdg_popup_destroy
Hyprland:wlr_xdg_popup_from_resource
Hyprland:wlr_xdg_popup_get_position
Hyprland:wlr_xdg_popup_get_toplevel_coords
Hyprland:wlr_xdg_popup_try_from_wlr_surface
Hyprland:wlr_xdg_popup_unconstrain_from_box
Hyprland:wlr_xdg_positioner_from_resource
Hyprland:wlr_xdg_positioner_rules_get_geometry
Hyprland:wlr_xdg_positioner_rules_unconstrain_box
Hyprland:wlr_xdg_shell_create
Hyprland:wlr_xdg_surface_for_each_popup_surface
Hyprland:wlr_xdg_surface_for_each_surface
Hyprland:wlr_xdg_surface_from_resource
Hyprland:wlr_xdg_surface_get_geometry
Hyprland:wlr_xdg_surface_ping
Hyprland:wlr_xdg_surface_popup_surface_at
Hyprland:wlr_xdg_surface_schedule_configure
Hyprland:wlr_xdg_surface_surface_at
Hyprland:wlr_xdg_surface_try_from_wlr_surface
Hyprland:wlr_xdg_toplevel_decoration_v1_set_mode
Hyprland:wlr_xdg_toplevel_from_resource
Hyprland:wlr_xdg_toplevel_send_close
Hyprland:wlr_xdg_toplevel_set_activated
Hyprland:wlr_xdg_toplevel_set_bounds
Hyprland:wlr_xdg_toplevel_set_fullscreen
Hyprland:wlr_xdg_toplevel_set_maximized
Hyprland:wlr_xdg_toplevel_set_parent
Hyprland:wlr_xdg_toplevel_set_resizing
Hyprland:wlr_xdg_toplevel_set_size
Hyprland:wlr_xdg_toplevel_set_suspended
Hyprland:wlr_xdg_toplevel_set_tiled
Hyprland:wlr_xdg_toplevel_set_wm_capabilities
Hyprland:wlr_xdg_toplevel_try_from_wlr_surface
Hyprland:wlr_xwayland_create
Hyprland:wlr_xwayland_create_with_server
Hyprland:wlr_xwayland_destroy
Hyprland:wlr_xwayland_icccm_input_model
Hyprland:wlr_xwayland_or_surface_wants_focus
Hyprland:wlr_xwayland_server_create
Hyprland:wlr_xwayland_server_destroy
Hyprland:wlr_xwayland_set_cursor
Hyprland:wlr_xwayland_set_seat
Hyprland:wlr_xwayland_set_workareas
Hyprland:wlr_xwayland_shell_v1_create
Hyprland:wlr_xwayland_shell_v1_destroy
Hyprland:wlr_xwayland_shell_v1_set_client
Hyprland:wlr_xwayland_shell_v1_surface_from_serial
Hyprland:wlr_xwayland_surface_activate
Hyprland:wlr_xwayland_surface_close
Hyprland:wlr_xwayland_surface_configure
Hyprland:wlr_xwayland_surface_ping
Hyprland:wlr_xwayland_surface_restack
Hyprland:wlr_xwayland_surface_set_fullscreen
Hyprland:wlr_xwayland_surface_set_maximized
Hyprland:wlr_xwayland_surface_set_minimized
Hyprland:wlr_xwayland_surface_set_withdrawn
Hyprland:wlr_xwayland_surface_try_from_wlr_surface
Hyprland:x11_keyboard_impl
Hyprland:x11_pointer_impl
Hyprland:x11_touch_impl
Hyprland:xcursor_images_destroy
Hyprland:xcursor_load_theme
Hyprland:xwm_atoms_contains
Hyprland:xwm_create
Hyprland:xwm_destroy
Hyprland:xwm_get_atom_name
Hyprland:xwm_get_incr_chunk
Hyprland:xwm_get_selection
Hyprland:xwm_handle_selection_client_message
Hyprland:xwm_handle_selection_destroy_notify
Hyprland:xwm_handle_selection_event
Hyprland:xwm_handle_selection_notify
Hyprland:xwm_handle_selection_request
Hyprland:xwm_handle_xfixes_selection_notify
Hyprland:xwm_mime_type_from_atom
Hyprland:xwm_mime_type_to_atom
Hyprland:xwm_seat_handle_start_drag
Hyprland:xwm_selection_find_incoming_transfer_by_window
Hyprland:xwm_selection_finish
Hyprland:xwm_selection_init
Hyprland:xwm_selection_transfer_close_wl_client_fd
Hyprland:xwm_selection_transfer_destroy
Hyprland:xwm_selection_transfer_destroy_outgoing
Hyprland:xwm_selection_transfer_destroy_property_reply
Hyprland:xwm_selection_transfer_init
Hyprland:xwm_selection_transfer_remove_event_source
Hyprland:xwm_send_incr_chunk
Hyprland:xwm_set_cursor
Hyprland:xwm_set_seat
